******************************************************************************
                  TI ARM Linker PC v20.2.7                     
******************************************************************************
>> Linked Mon Jul 28 12:11:08 2025

OUTPUT FILE NAME:   <JM_EMBD.out>
ENTRY POINT SYMBOL: "_c_int00"  address: 00023945


MEMORY CONFIGURATION

         name            origin    length      used     unused   attr    fill
----------------------  --------  ---------  --------  --------  ----  --------
  FLASH                 00000000   00100000  0002b7d4  000d482c  R  X
  SRAM                  20000000   00040000  0003ff5b  000000a5  RW X


SEGMENT ALLOCATION MAP

run origin  load origin   length   init length attrs members
----------  ----------- ---------- ----------- ----- -------
00000000    00000000    0002b7e0   0002b7e0    r-x
  00000000    00000000    0000003c   0000003c    r-- .resetVecs
  00000040    00000040    00029f5a   00029f5a    r-x .text
  00029fa0    00029fa0    0000119e   0000119e    r-- .const
  0002b140    0002b140    000006a0   000006a0    r-- .cinit
20000360    20000360    00020000   00000000    r--
  20000360    20000360    00020000   00000000    r-- .priheap
20020400    20020400    0001fc00   00000000    rw-
  20020400    20020400    0001e76c   00000000    rw- .bss
  2003eb6c    2003eb6c    0000108f   00000000    rw- .data
  2003fc00    2003fc00    00000400   00000000    rw- .stack


SECTION ALLOCATION MAP

 output                                  attributes/
section   page    origin      length       input sections
--------  ----  ----------  ----------   ----------------
.text      0    00000040    00029f5a     
                  00000040    00001f60     infrastructure.obj (.text:msgError)
                  00001fa0    00001380     infrastructure.obj (.text:addError)
                  00003320    00000d0c     stk.aem4f : tcpin.oem4f (.text:TcpInput)
                  0000402c    00000cb8     infrastructure.obj (.text:runRegister)
                  00004ce4    00000b14     rtsv7M4_T_le_v4SPD16_eabi.lib : _scanfi.c.obj (.text:__TI_scanfi)
                  000057f8    00000a4e                                   : _printfi.c.obj (.text:__TI_printfi)
                  00006246    00000002     ti_drivers_config.obj (.text:Board_initHook)
                  00006248    0000090c     stk.aem4f : tcpout.oem4f (.text:TcpOutput)
                  00006b54    00000840     infrastructure.obj (.text:runDial)
                  00007394    00000830     infrastructure.obj (.text:initProgram)
                  00007bc4    000006ca     infrastructure.obj (.text:msgHelpReg)
                  0000828e    00000002     stk.aem4f : nat.oem4f (.text:NatMsg)
                  00008290    00000614     infrastructure.obj (.text:runConditional)
                  000088a4    000005ba     infrastructure.obj (.text:msgHelpConditional)
                  00008e5e    00000002     drivers_msp432e4.aem4f : TimerMSP432E4.oem4f (.text:TimerMSP432E4_init)
                  00008e60    000004f0     slnetifndk_msp432e4.aem4f : slnetifndk.oem4f (.text:SlNetIfNDK_getSockOpt)
                  00009350    0000048c     stk.aem4f : ipout.oem4f (.text:IPTxPacket)
                  000097dc    00000482     infrastructure.obj (.text:msgHelpGPIO)
                  00009c5e    00000002     drivers_msp432e4.aem4f : UARTMSP432E4.oem4f (.text:UARTMSP432E4_init)
                  00009c60    00000468     sysbios.aem4f : BIOS.obj (.text:xdc_runtime_System_doPrint__I)
                  0000a0c8    00000460     rtsv7M4_T_le_v4SPD16_eabi.lib : strtod.c.obj (.text:strtod)
                  0000a528    000003e8     infrastructure.obj (.text:runTicker)
                  0000a910    000003e5     infrastructure.obj (.text:msgHelpDial)
                  0000acf5    00000001     --HOLE-- [fill = 0]
                  0000acf6    00000002     hal_ser_stub.aem4f : llserstb.oem4f (.text:_llSerialServiceCheck)
                  0000acf8    000003c8     infrastructure.obj (.text:runTimer)
                  0000b0c0    000003a0     stk.aem4f : ipin.oem4f (.text:IPRxPacket)
                  0000b460    00000396     nettool_ipv4.aem4f : dnscomn.oem4f (.text:DNSResolveByName)
                  0000b7f6    00000002     hal_ser_stub.aem4f : llserstb.oem4f (.text:_llSerialShutdown)
                  0000b7f8    00000384     tasks.obj (.text:taskUART0Read)
                  0000bb7c    00000380     infrastructure.obj (.text:msgHelpTicker)
                  0000befc    00000350     slnetsock_release.a : slnetutils.oem4f (.text:SlNetUtil_getAddrInfo)
                  0000c24c    00000328     infrastructure.obj (.text:initDrivers)
                  0000c574    0000031c     infrastructure.obj (.text:msgHelpSine)
                  0000c890    0000031c     udpEcho.obj (.text:receiveFunction)
                  0000cbac    0000030c     infrastructure.obj (.text:runScript)
                  0000ceb8    0000030a     nettool_ipv4.aem4f : dnscomn.oem4f (.text:DNSResolveByAddr)
                  0000d1c2    00000002     hal_userled_stub.aem4f : llled.oem4f (.text:_llUserLedInit)
                  0000d1c4    000002f0     drivers_msp432e4.aem4f : UARTMSP432E4.oem4f (.text:UARTMSP432E4_open)
                  0000d4b4    000002ec     slnetifndk_msp432e4.aem4f : slnetifndk.oem4f (.text:SlNetIfNDK_setSockOpt)
                  0000d7a0    000002ea     nettool_ipv4.aem4f : dnscomn.oem4f (.text:DNSResolveByNS)
                  0000da8a    00000002     hal_userled_stub.aem4f : llled.oem4f (.text:_llUserLedShutdown)
                  0000da8c    000002d8     infrastructure.obj (.text:msgHelpNETUDP)
                  0000dd64    000002d8     infrastructure.obj (.text:runStream)
                  0000e03c    000002d0     infrastructure.obj (.text:msgHelp)
                  0000e30c    000002c0     infrastructure.obj (.text:runSine)
                  0000e5cc    000002bc     infrastructure.obj (.text:execPayload)
                  0000e888    000002b0     infrastructure.obj (.text:msgHelpScript)
                  0000eb38    000002ac     stk.aem4f : sock.oem4f (.text:SockSet)
                  0000ede4    00000004     drivers_msp432e4.aem4f : ADCBufMSP432E4.oem4f (.text:ADCBufMSP432E4_getResolution)
                  0000ede8    000002a0     sysbios.aem4f : BIOS.obj (.text:ti_sysbios_family_arm_msp432e4_init_Boot_sysCtlClockFreqSetI__I)
                  0000f088    00000294     udpEchoHooks.obj (.text:netIPAddrHook)
                  0000f31c    00000274     stk.aem4f : icmpin.oem4f (.text:ICMPInput)
                  0000f590    00000274     infrastructure.obj (.text:helpLookUp)
                  0000f804    00000270     rtsv7M4_T_le_v4SPD16_eabi.lib : _printfi.c.obj (.text:_pconv_a)
                  0000fa74    0000025e     stk.aem4f : fileuser.oem4f (.text:fdPoll)
                  0000fcd2    00000002     rtsv7M4_T_le_v4SPD16_eabi.lib : _lock.c.obj (.text:_nop)
                  0000fcd4    0000025c     stk.aem4f : ipfrag.oem4f (.text:IPReasm)
                  0000ff30    00000250     infrastructure.obj (.text:runCallback)
                  00010180    0000023a     msp432e4_driverlib.a : gpio.o (.text:GPIOPadConfigSet)
                  000103ba    00000002     hal_ser_stub.aem4f : llserstb.oem4f (.text:llSerialService)
                  000103bc    00000230     stk.aem4f : udp.oem4f (.text:UdpInput)
                  000105ec    00000218     netctrl_min_ipv4.aem4f : netctrl.oem4f (.text:NC_NetStart)
                  00010804    00000218     slnetifndk_msp432e4.aem4f : slnetifndk.oem4f (.text:SlNetIfNDK_recvFrom)
                  00010a1c    00000218     udpEcho.obj (.text:transmitFunction)
                  00010c34    00000214     drivers_msp432e4.aem4f : ADCBufMSP432E4.oem4f (.text:ADCBufMSP432E4_open)
                  00010e48    00000210     infrastructure.obj (.text:runGPIO)
                  00011058    0000020c     infrastructure.obj (.text:msgHelpTimer)
                  00011264    00000204     infrastructure.obj (.text:msgHelpStream)
                  00011468    00000204     infrastructure.obj (.text:runVoice)
                  0001166c    00000200     slnetifndk_msp432e4.aem4f : slnetifndk.oem4f (.text:SlNetIfNDK_sendTo)
                  0001186c    000001fc     drivers_msp432e4.aem4f : SPIMSP432E4DMA.oem4f (.text:SPIMSP432E4DMA_transfer)
                  00011a68    000001f8     stk.aem4f : sock.oem4f (.text:SockGet)
                  00011c60    000001ec     slnetifndk_msp432e4.aem4f : slnetifndk.oem4f (.text:SlNetIfNDK_accept)
                  00011e4c    000001ec     stk.aem4f : sock.oem4f (.text:SockRecv)
                  00012038    000001ea     nettool_ipv4.aem4f : dnspkt.oem4f (.text:DNSGetReply)
                  00012222    00000002     rtsv7M4_T_le_v4SPD16_eabi.lib : div0.asm.obj (.text)
                  00012224    000001dc                                   : strtoll.c.obj (.text:strtoll)
                  00012400    000001d0     stk.aem4f : lliin.oem4f (.text:LLIRxPacket)
                  000125d0    000001d0     rtsv7M4_T_le_v4SPD16_eabi.lib : _printfi.c.obj (.text:_pconv_g)
                  000127a0    000001cc     udpEcho.obj (.text:parseNETUDP)
                  0001296c    000001c8     drivers_msp432e4.aem4f : EMACMSP432E4.oem4f (.text:EMACMSP432E4_emacStart)
                  00012b34    000001c4     infrastructure.obj (.text:runAudio)
                  00012cf8    000001c0     drivers_msp432e4.aem4f : ADCBufMSP432E4.oem4f (.text:primeConvert)
                  00012eb8    000001bc     infrastructure.obj (.text:msgHelpCallback)
                  00013074    000001b6     rtsv7M4_T_le_v4SPD16_eabi.lib : fd_add_t2.asm.obj (.text)
                  0001322a    00000002     infrastructure.obj (.text:runRem)
                  0001322c    000001b4     drivers_msp432e4.aem4f : SPIMSP432E4DMA.oem4f (.text:SPIMSP432E4DMA_open)
                  000133e0    000001b4     stk.aem4f : sock.oem4f (.text:SockNew)
                  00013594    000001b0               : lliout.oem4f (.text:LLITxIpPacket)
                  00013744    000001b0               : udp.oem4f (.text:UdpOutput)
                  000138f4    0000019c     os.aem4f : mem.oem4f (.text:mmAlloc)
                  00013a90    00000198     nettool_ipv4.aem4f : dnsclnt.oem4f (.text:DNSResolve)
                  00013c28    00000198     stk.aem4f : igmp.oem4f (.text:IGMPInput)
                  00013dc0    00000198     slnetsock_release.a : slnetsock.oem4f (.text:SlNetSock_select)
                  00013f58    00000194     nettool_ipv4.aem4f : dhcpmain.oem4f (.text:DHCPOpen)
                  000140ec    00000190     infrastructure.obj (.text:msgHelpUART7)
                  0001427c    00000188     nettool_ipv4.aem4f : ipaddr.oem4f (.text:NtGetPublicHost)
                  00014404    00000188     stk.aem4f : fileuser.oem4f (.text:fdSelect)
                  0001458c    00000188     release_pem4f.oem4f (.text:xdc_runtime_System_printfExtend__I)
                  00014714    00000184     drivers_msp432e4.aem4f : GPIOMSP432E4.oem4f (.text:GPIO_setConfig)
                  00014898    00000184     slnetifndk_msp432e4.aem4f : slnetifndk.oem4f (.text:SlNetIfNDK_getPeerName)
                  00014a1c    00000184                               : slnetifndk.oem4f (.text:SlNetIfNDK_getSockName)
                  00014ba0    0000017c     drivers_msp432e4.aem4f : EMACMSP432E4.oem4f (.text:EMACMSP432E4_NIMUInit)
                  00014d1c    00000178     slnetifndk_msp432e4.aem4f : slnetifndk.oem4f (.text:SlNetIfNDK_recv)
                  00014e94    00000178     stk.aem4f : tcpout.oem4f (.text:TcpGenPacket)
                  0001500c    00000174     infrastructure.obj (.text:msgAbout)
                  00015180    00000170     nettool_ipv4.aem4f : dnscomn.oem4f (.text:DNSResolveExternal)
                  000152f0    00000170     stk.aem4f : rtc.oem4f (.text:RTCReport)
                  00015460    0000016d     nettool_ipv4.aem4f : dnspkt.oem4f (.text:DNSReadRecord)
                  000155cd    00000001     --HOLE-- [fill = 0]
                  000155ce    00000002     tasks.obj (.text:taskAAA)
                  000155d0    0000016c     slnetifndk_msp432e4.aem4f : slnetifndk.oem4f (.text:SlNetIfNDK_send)
                  0001573c    0000016a     stk.aem4f : sb.oem4f (.text:SBRead)
                  000158a6    00000002     tasks.obj (.text:taskNETUDP)
                  000158a8    00000168     slnetifndk_msp432e4.aem4f : slnetifndk.oem4f (.text:SlNetIfNDK_connect)
                  00015a10    00000164     tasks.obj (.text:taskADCStream)
                  00015b74    00000160     stk.aem4f : icmp.oem4f (.text:ICMPGenPacket)
                  00015cd4    00000160               : sock.oem4f (.text:SockConnect)
                  00015e34    0000015c     rtsv7M4_T_le_v4SPD16_eabi.lib : strtoull.c.obj (.text:strtoull)
                  00015f90    00000158     stk.aem4f : nimu.oem4f (.text:NIMUInit)
                  000160e8    00000154     sysbios.aem4f : BIOS.obj (.text:ti_sysbios_knl_Task_Instance_finalize__E)
                  0001623c    00000150     infrastructure.obj (.text:msgHelpMemr)
                  0001638c    00000148     ti_ndk_config.obj (.text:ndkStackThread)
                  000164d4    00000144     stk.aem4f : bind.oem4f (.text:BindNew)
                  00016618    00000144     slnetifndk_msp432e4.aem4f : slnetifndk.oem4f (.text:SlNetIfNDK_select)
                  0001675c    00000144     stk.aem4f : sockpcb.oem4f (.text:SockPcbResolve)
                  000168a0    00000140     drivers_msp432e4.aem4f : ADCBufMSP432E4.oem4f (.text:ADCBufMSP432E4_hwiIntFxn)
                  000169e0    00000140     stk.aem4f : tcp.oem4f (.text:TcpTimeoutCheck)
                  00016b20    0000013c     nettool_ipv4.aem4f : config.oem4f (.text:CfgAddEntry)
                  00016c5c    0000013c     netctrl_min_ipv4.aem4f : netctrl.oem4f (.text:NetScheduler)
                  00016d98    0000013c     slnetifndk_msp432e4.aem4f : slnetifndk.oem4f (.text:SlNetIfNDK_ifCreateContext)
                  00016ed4    0000013c     stk.aem4f : sockint.oem4f (.text:SockNotify)
                  00017010    0000013c               : sock.oem4f (.text:SockSend)
                  0001714c    0000013c     rtsv7M4_T_le_v4SPD16_eabi.lib : _printfi.c.obj (.text:_pconv_e)
                  00017288    00000136                                   : fd_div_t2.asm.obj (.text)
                  000173be    00000002     release_pem4f.oem4f (.text:ti_sysbios_BIOS_nullFunc__I)
                  000173c0    00000134     drivers_msp432e4.aem4f : EMACMSP432E4.oem4f (.text:EMACMSP432E4_handleRx)
                  000174f4    00000130     infrastructure.obj (.text:runMemr)
                  00017624    00000130     rtsv7M4_T_le_v4SPD16_eabi.lib : strtol.c.obj (.text:strtol)
                  00017754    00000004     stk.aem4f : bind.oem4f (.text:BindGetIF)
                  00017758    00000130     sysbios.aem4f : BIOS.obj (.text:ti_sysbios_knl_Semaphore_pend__E)
                  00017888    0000012e     drivers_msp432e4.aem4f : SPIMSP432E4DMA.oem4f (.text:SPIMSP432E4DMA_transferCancel)
                  000179b6    00000002     --HOLE-- [fill = 0]
                  000179b8    00000124     rtsv7M4_T_le_v4SPD16_eabi.lib : _printfi.c.obj (.text:fcvt)
                  00017adc    00000120     slnetsock_release.a : errnoutil.oem4f (.text:ErrnoUtil_set)
                  00017bfc    00000120     slnetifndk_msp432e4.aem4f : slnetifndk.oem4f (.text:SlNetIfNDK_close)
                  00017d1c    00000004     stk.aem4f : bind.oem4f (.text:BindGetNext)
                  00017d20    00000120     sysbios.aem4f : BIOS.obj (.text:xdc_runtime_Startup_startMods__I)
                  00017e40    0000011c     drivers_msp432e4.aem4f : ADCBufMSP432E4.oem4f (.text:ADCBufMSP423E4_noDMAhwiIntFxn)
                  00017f5c    00000118                            : TimerMSP432E4.oem4f (.text:TimerMSP432E4_open)
                  00018074    00000114     stk.aem4f : nimu.oem4f (.text:NIMUIoctl)
                  00018188    00000114               : raw.oem4f (.text:RawInput)
                  0001829c    00000114     slnetifndk_msp432e4.aem4f : slnetifndk.oem4f (.text:SlNetIfNDK_getIPAddr)
                  000183b0    00000114     rtsv7M4_T_le_v4SPD16_eabi.lib : fputs.c.obj (.text:fputs)
                  000184c4    00000114     infrastructure.obj (.text:runNETUDP)
                  000185d8    00000110     stk.aem4f : node.oem4f (.text:NodeTreeFree)
                  000186e8    00000110               : route.oem4f (.text:RtCreate)
                  000187f8    00000110               : rtable.oem4f (.text:RtFind)
                  00018908    00000110     rtsv7M4_T_le_v4SPD16_eabi.lib : s_scalbn.c.obj (.text:scalbn)
                  00018a18    00000110                                   : strtoul.c.obj (.text:strtoul)
                  00018b28    00000110     sysbios.aem4f : BIOS.obj (.text:ti_sysbios_knl_Task_postInit__I)
                  00018c38    0000010c     slnetifndk_msp432e4.aem4f : slnetifndk.oem4f (.text:getBSDSlNetErr)
                  00018d44    00000004     dpl_msp432e4.aem4f : ClockP_tirtos.oem4f (.text:ClockP_getCpuFreq)
                  00018d48    0000010c     sysbios.aem4f : BIOS.obj (.text:ti_sysbios_family_arm_lm4_Timer_start__E)
                  00018e54    0000010a     stk.aem4f : tcpprot.oem4f (.text:TcpPrSetOption)
                  00018f5e    00000002     --HOLE-- [fill = 0]
                  00018f60    00000108     slnetsock_release.a : slnetutils.oem4f (.text:SlNetUtil_str2BinIpV6)
                  00019068    00000108     infrastructure.obj (.text:addTicker)
                  00019170    00000108     infrastructure.obj (.text:msgHelpAudio)
                  00019278    00000104     drivers_msp432e4.aem4f : SPIMSP432E4DMA.oem4f (.text:configNextTransfer)
                  0001937c    00000104     nettool_ipv4.aem4f : dhcppkt.oem4f (.text:dhcpPacketProcess)
                  00019480    00000102                        : inetaddr.oem4f (.text:inet_aton)
                  00019582    00000002     --HOLE-- [fill = 0]
                  00019584    00000100     stk.aem4f : icmp.oem4f (.text:ICMPSendRtAdv)
                  00019684    00000100               : igmp.oem4f (.text:IGMPSendReply)
                  00019784    000000fc     rtsv7M4_T_le_v4SPD16_eabi.lib : fd_mul_t2.asm.obj (.text)
                  00019880    000000f8     drivers_msp432e4.aem4f : ADCBufMSP432E4.oem4f (.text:ADCBufMSP432E4_close)
                  00019978    000000f8     slnetsock_release.a : slnetutils.oem4f (.text:SlNetUtil_inetAton)
                  00019a70    000000f8     rtsv7M4_T_le_v4SPD16_eabi.lib : s_floor.c.obj (.text:floor)
                  00019b68    000000f8     os.aem4f : os_ll.oem4f (.text:llEnter)
                  00019c60    000000f8     sysbios.aem4f : BIOS.obj (.text:timer_create)
                  00019d58    000000f4     stk.aem4f : sock.oem4f (.text:SockClose)
                  00019e4c    000000f0               : lliout.oem4f (.text:LLIGenArpPacket)
                  00019f3c    000000f0               : rawethsock.oem4f (.text:RawEthSockNew)
                  0001a02c    00000004     dpl_msp432e4.aem4f : ClockP_tirtos.oem4f (.text:ClockP_setTimeout)
                  0001a030    000000f0     sysbios.aem4f : BIOS.obj (.text:pthread_create)
                  0001a120    000000f0                   : m3_Hwi_asm.obj (.text:ti_sysbios_family_arm_m3_Hwi_dispatch__I)
                  0001a210    000000f0     msp432e4_driverlib.a : udma.o (.text:uDMAChannelTransferSet)
                  0001a300    000000ee                          : adc.o (.text:ADCSequenceStepConfigure)
                  0001a3ee    000000ee     nettool_ipv4.aem4f : dnspkt.oem4f (.text:DNSWriteRecord)
                  0001a4dc    000000ee     slnetifndk_msp432e4.aem4f : slnetifndk.oem4f (.text:SlNetIfNDK_socket)
                  0001a5ca    00000006     drivers_msp432e4.aem4f : ADCBufMSP432E4.oem4f (.text:ADCBufMSP432E4_adjustRawValues)
                  0001a5d0    000000ec     sysbios.aem4f : BIOS.obj (.text:clock_gettime)
                  0001a6bc    000000ea     stk.aem4f : pipe.oem4f (.text:PipeRecv)
                  0001a7a6    000000e8     nettool_ipv4.aem4f : dnspkt.oem4f (.text:DNSWriteName)
                  0001a88e    000000e8     drivers_msp432e4.aem4f : SPIMSP432E4DMA.oem4f (.text:SPIMSP432E4DMA_hwiFxn)
                  0001a976    00000002     --HOLE-- [fill = 0]
                  0001a978    000000e8     sysbios.aem4f : BIOS.obj (.text:ti_sysbios_knl_Task_Instance_init__E)
                  0001aa60    000000e8                   : BIOS.obj (.text:timer_settime)
                  0001ab48    000000e4     slnetsock_release.a : slnetif.oem4f (.text:SlNetIf_add)
                  0001ac2c    000000e4     stk.aem4f : sockpcb.oem4f (.text:SockPcbBind)
                  0001ad10    000000e0     msp432e4_driverlib.a : emac.o (.text:EMACInit)
                  0001adf0    000000e0     stk.aem4f : tcptime.oem4f (.text:TcpTimeoutRexmt)
                  0001aed0    000000e0     callbacks.obj (.text:timer1SWI)
                  0001afb0    000000de     nettool_ipv4.aem4f : dhcpsock.oem4f (.text:dhcpSocketOpen)
                  0001b08e    00000002     --HOLE-- [fill = 0]
                  0001b090    000000dc     stk.aem4f : sb.oem4f (.text:SBWrite)
                  0001b16c    000000dc     rtsv7M4_T_le_v4SPD16_eabi.lib : setvbuf.c.obj (.text:setvbuf)
                  0001b248    000000da     nettool_ipv4.aem4f : dhcpsm.oem4f (.text:dhcpState)
                  0001b322    00000002     --HOLE-- [fill = 0]
                  0001b324    000000d8     stk.aem4f : node.oem4f (.text:NodeAdd)
                  0001b3fc    000000d8     slnetifndk_msp432e4.aem4f : slnetifndk.oem4f (.text:SlNetIfNDK_bind)
                  0001b4d4    000000d8     infrastructure.obj (.text:msgHelpVoice)
                  0001b5ac    000000d8     udpEchoHooks.obj (.text:serviceReport)
                  0001b684    000000d4     slnetifndk_msp432e4.aem4f : slnetifndk.oem4f (.text:SlNetIfNDK_listen)
                  0001b758    000000d1     stk.aem4f : nimu.oem4f (.text:NIMUReceivePacket)
                  0001b829    00000003     --HOLE-- [fill = 0]
                  0001b82c    000000d0     netctrl_min_ipv4.aem4f : netsrv.oem4f (.text:SPIpNet)
                  0001b8fc    000000d0     slnetifndk_msp432e4.aem4f : slnetifndk.oem4f (.text:SlNetIfNDK_shutdown)
                  0001b9cc    000000d0     nettool_ipv4.aem4f : dhcpsm.oem4f (.text:dhcpIPAdd)
                  0001ba9c    000000d0     infrastructure.obj (.text:initMsg)
                  0001bb6c    00000004     dpl_msp432e4.aem4f : ClockP_tirtos.oem4f (.text:ClockP_start)
                  0001bb70    000000d0     sysbios.aem4f : BIOS.obj (.text:ti_sysbios_heaps_HeapMem_alloc__E)
                  0001bc40    000000cc     stk.aem4f : rawethsock.oem4f (.text:RawEthSockGet)
                  0001bd0c    000000cc               : rawethsock.oem4f (.text:RawEthSockSet)
                  0001bdd8    000000cc     nettool_ipv4.aem4f : dhcpbild.oem4f (.text:dhcpBuildHeader)
                  0001bea4    000000cc                        : dhcppkt.oem4f (.text:dhcpVerifyMessage)
                  0001bf70    000000c4     stk.aem4f : igmp.oem4f (.text:IGMPJoinHostGroup)
                  0001c034    000000c4     nettool_ipv4.aem4f : dhcpsm.oem4f (.text:StateBound)
                  0001c0f8    000000c4     drivers_msp432e4.aem4f : ADCBufMSP432E4.oem4f (.text:configDMA)
                  0001c1bc    000000c4     infrastructure.obj (.text:msgHelpError)
                  0001c280    000000c4     rtsv7M4_T_le_v4SPD16_eabi.lib : s_round.c.obj (.text:round)
                  0001c344    00000004     dpl_msp432e4.aem4f : ClockP_tirtos.oem4f (.text:ClockP_stop)
                  0001c348    000000c4     sysbios.aem4f : BIOS.obj (.text:ti_sysbios_knl_Task_sleep__E)
                  0001c40c    000000c0     nettool_ipv4.aem4f : dnspkt.oem4f (.text:DNSReadName)
                  0001c4cc    000000be                        : dnsclnt.oem4f (.text:DNSGetHostByName)
                  0001c58a    000000be     drivers_msp432e4.aem4f : UARTMSP432E4.oem4f (.text:UARTMSP432E4_close)
                  0001c648    000000bc     stk.aem4f : sockpcb.oem4f (.text:SockPcbFind)
                  0001c704    000000bc               : vlan.oem4f (.text:VLANDeinit)
                  0001c7c0    000000bc     infrastructure.obj (.text:addOutMsg)
                  0001c87c    000000bc     tasks.obj (.text:taskUART0Write)
                  0001c938    000000bc     sysbios.aem4f : BIOS.obj (.text:ti_sysbios_knl_Task_exit__E)
                  0001c9f4    00000004     dpl_msp432e4.aem4f : HwiP_tirtos.oem4f (.text:HwiP_clearInterrupt)
                  0001c9f8    000000bc     sysbios.aem4f : BIOS.obj (.text:xdc_runtime_Core_createObject__I)
                  0001cab4    000000ba     stk.aem4f : icmpin.oem4f (.text:ICMPRevSrcRoute)
                  0001cb6e    00000002     --HOLE-- [fill = 0]
                  0001cb70    000000b8               : lli.oem4f (.text:_LLITimeoutCheck)
                  0001cc28    000000b8     sysbios.aem4f : BIOS.obj (.text:ti_sysbios_family_arm_m3_Hwi_Instance_init__E)
                  0001cce0    000000b6     drivers_msp432e4.aem4f : UARTMSP432E4.oem4f (.text:readTaskCallback)
                  0001cd96    00000002     --HOLE-- [fill = 0]
                  0001cd98    000000b4     stk.aem4f : tcptime.oem4f (.text:TcpTimeoutKeep)
                  0001ce4c    000000b4     infrastructure.obj (.text:msgHelpHelp)
                  0001cf00    000000b2     stk.aem4f : nimu.oem4f (.text:NIMUAddEthernetHeader)
                  0001cfb2    00000002     --HOLE-- [fill = 0]
                  0001cfb4    000000b1     rtsv7M4_T_le_v4SPD16_eabi.lib : _printfi.c.obj (.text:_ltostr)
                  0001d065    00000001     --HOLE-- [fill = 0]
                  0001d066    000000b0     drivers_msp432e4.aem4f : UARTMSP432E4.oem4f (.text:readTaskBlocking)
                  0001d116    00000002     --HOLE-- [fill = 0]
                  0001d118    000000b0     sysbios.aem4f : BIOS.obj (.text:ti_sysbios_family_arm_lm4_Timer_enableTiva__I)
                  0001d1c8    000000ac     drivers_msp432e4.aem4f : EMACMSP432E4.oem4f (.text:EMACMSP432E4_initDMADescriptors)
                  0001d274    000000ac                            : GPIOMSP432E4.oem4f (.text:GPIO_init)
                  0001d320    000000ac     stk.aem4f : rtable.oem4f (.text:RtTimeoutCheck)
                  0001d3cc    000000ac     os.aem4f : task.oem4f (.text:TaskGetEnv)
                  0001d478    000000a8     stk.aem4f : sockint.oem4f (.text:SockCreatePacket)
                  0001d520    000000a8     callbacks.obj (.text:timer0SWI)
                  0001d5c8    000000a4     msp432e4_driverlib.a : gpio.o (.text:GPIOIntTypeSet)
                  0001d66c    000000a4     os.aem4f : task.oem4f (.text:TaskSetEnv)
                  0001d710    000000a4     infrastructure.obj (.text:UART_write_prot_bold)
                  0001d7b4    00000004     dpl_msp432e4.aem4f : HwiP_tirtos.oem4f (.text:HwiP_disable)
                  0001d7b8    000000a4     sysbios.aem4f : BIOS.obj (.text:ti_sysbios_knl_Task_setPri__E)
                  0001d85c    000000a0     drivers_msp432e4.aem4f : EMACMSP432E4.oem4f (.text:EMACMSP432E4_emacStop)
                  0001d8fc    000000a0     stk.aem4f : ip.oem4f (.text:IPGetRoute)
                  0001d99c    000000a0     auto_init.aem4f : auto_init.oem4f (.text)
                  0001da3c    0000009e     nettool_ipv4.aem4f : dnsclnt.oem4f (.text:DNSGetHostArrayByName)
                  0001dada    0000009e     drivers_msp432e4.aem4f : UARTMSP432E4.oem4f (.text:UARTMSP432E4_readPolling)
                  0001db78    0000009c     stk.aem4f : exec.oem4f (.text:ExecOpen)
                  0001dc14    0000009c     drivers_msp432e4.aem4f : SPIMSP432E4DMA.oem4f (.text:SPIMSP432E4DMA_close)
                  0001dcb0    0000009c     sysbios.aem4f : BIOS.obj (.text:_pthread_removeThreadKeys)
                  0001dd4c    0000009c     infrastructure.obj (.text:addPayload)
                  0001dde8    0000009c     drivers_msp432e4.aem4f : ADCBufMSP432E4.oem4f (.text:initHw)
                  0001de84    0000009c     rtsv7M4_T_le_v4SPD16_eabi.lib : memcpy_t2.asm.obj (.text)
                  0001df20    00000098     drivers_msp432e4.aem4f : ADCBufMSP432E4.oem4f (.text:ADCBufMSP432E4_convertCancel)
                  0001dfb8    00000098     netctrl_min_ipv4.aem4f : netctrl.oem4f (.text:NC_SystemOpen)
                  0001e050    00000098                            : netsrv.oem4f (.text:ServiceScan)
                  0001e0e8    00000098     drivers_msp432e4.aem4f : UARTMSP432E4.oem4f (.text:UARTMSP432E4_write)
                  0001e180    00000096     rtsv7M4_T_le_v4SPD16_eabi.lib : ull_div_t2.asm.obj (.text)
                  0001e216    00000002     --HOLE-- [fill = 0]
                  0001e218    00000094     nettool_ipv4.aem4f : config.oem4f (.text:CfgExecute)
                  0001e2ac    00000094                        : config.oem4f (.text:CfgRemoveEntry)
                  0001e340    00000094     os.aem4f : mem.oem4f (.text:_mmInit)
                  0001e3d4    00000094     drivers_msp432e4.aem4f : UARTMSP432E4.oem4f (.text:readIsrTextBlocking)
                  0001e468    00000094     sysbios.aem4f : BIOS.obj (.text:ti_sysbios_family_arm_m3_Hwi_initNVIC__E)
                  0001e4fc    00000092     slnetsock_release.a : slnetsock.oem4f (.text:SlNetSock_create)
                  0001e58e    00000002     --HOLE-- [fill = 0]
                  0001e590    00000090     stk.aem4f : igmp.oem4f (.text:IGMPMsg)
                  0001e620    00000090     slnetsock_release.a : slnetsock.oem4f (.text:SlNetSock_getVirtualSdConf)
                  0001e6b0    00000090     drivers_msp432e4.aem4f : UARTMSP432E4.oem4f (.text:UARTMSP432E4_control)
                  0001e740    00000090     infrastructure.obj (.text:addCallback)
                  0001e7d0    00000090     slnetsock_release.a : slnetutils.oem4f (.text:createAddrInfo)
                  0001e860    00000090     nettool_ipv4.aem4f : dhcpbild.oem4f (.text:dhcpBuildRequest)
                  0001e8f0    00000090     os.aem4f : mem.oem4f (.text:mmInitPage)
                  0001e980    00000090     sysbios.aem4f : BIOS.obj (.text:ti_sysbios_knl_Task_Module_startup__E)
                  0001ea10    0000008e     nettool_ipv4.aem4f : dnscomn.oem4f (.text:DNSResolveQuery)
                  0001ea9e    00000002     --HOLE-- [fill = 0]
                  0001eaa0    0000008c     stk.aem4f : ip.oem4f (.text:IPMsg)
                  0001eb2c    0000008c     msp432e4_driverlib.a : sysctl.o (.text:SysCtlPeripheralReset)
                  0001ebb8    0000008c     infrastructure.obj (.text:strncmpi)
                  0001ec44    0000008c     sysbios.aem4f : m3_TaskSupport_asm.obj (.text:ti_sysbios_family_arm_m3_TaskSupport_buildTaskStack)
                  0001ecd0    0000008c                   : BIOS.obj (.text:xdc_runtime_Memory_alloc__E)
                  0001ed5c    0000008a     netctrl_min_ipv4.aem4f : netsrv.oem4f (.text:SPRoute)
                  0001ede6    00000002     --HOLE-- [fill = 0]
                  0001ede8    00000088                            : netsrv.oem4f (.text:ServiceSpawn)
                  0001ee70    00000088     stk.aem4f : sockpcb.oem4f (.text:SockPcbCtlError)
                  0001eef8    00000088     drivers_msp432e4.aem4f : TimerMSP432E4.oem4f (.text:TimerMSP432E4_setPeriod)
                  0001ef80    00000088     infrastructure.obj (.text:addScript)
                  0001f008    00000088     drivers_msp432e4.aem4f : UARTMSP432E4.oem4f (.text:readIsrTextCallback)
                  0001f090    00000088     infrastructure.obj (.text:runUART7)
                  0001f118    00000086     stk.aem4f : sock.oem4f (.text:SockCheck)
                  0001f19e    00000086     nettool_ipv4.aem4f : dhcpsm.oem4f (.text:StateRequesting)
                  0001f224    00000086     rtsv7M4_T_le_v4SPD16_eabi.lib : fd_cmp_t2.asm.obj (.text:__aeabi_cdcmple)
                  0001f2aa    00000086                                   : fd_cmp_t2.asm.obj (.text:__aeabi_cdrcmple)
                  0001f330    00000086     sysbios.aem4f : BIOS.obj (.text:xdc_runtime_Core_constructObject__I)
                  0001f3b6    00000002     --HOLE-- [fill = 0]
                  0001f3b8    00000084     nettool_ipv4.aem4f : config.oem4f (.text:CfgGetEntry)
                  0001f43c    00000084     drivers_msp432e4.aem4f : EMACMSP432E4.oem4f (.text:EMACMSP432E4_hwiIntFxn)
                  0001f4c0    00000084                            : EMACMSP432E4.oem4f (.text:EMACMSP432E4_processPendingTx)
                  0001f544    00000084                            : EMACMSP432E4.oem4f (.text:EMACMSP432E4_processPhyInterrupt)
                  0001f5c8    00000084     stk.aem4f : raw.oem4f (.text:RawOutput)
                  0001f64c    00000084     slnetsock_release.a : slnetutils.oem4f (.text:SlNetUtil_getHostByName)
                  0001f6d0    00000084     stk.aem4f : sockpcb.oem4f (.text:SockCleanPcb)
                  0001f754    00000084               : tcpprot.oem4f (.text:TcpPrAttach)
                  0001f7d8    00000084               : fileuser.oem4f (.text:fdClose)
                  0001f85c    00000084     os.aem4f : mem.oem4f (.text:mmFree)
                  0001f8e0    00000084     sysbios.aem4f : BIOS.obj (.text:ti_sysbios_family_arm_m3_Hwi_postInit__I)
                  0001f964    00000004     dpl_msp432e4.aem4f : HwiP_tirtos.oem4f (.text:HwiP_disableInterrupt)
                  0001f968    00000084     sysbios.aem4f : BIOS.obj (.text:ti_sysbios_heaps_HeapMem_free__E)
                  0001f9ec    00000082     nettool_ipv4.aem4f : dhcpsm.oem4f (.text:StateRenewRebind)
                  0001fa6e    00000002     --HOLE-- [fill = 0]
                  0001fa70    00000080     stk.aem4f : lli.oem4f (.text:LLINew)
                  0001faf0    00000080               : pbm.oem4f (.text:PBM_alloc)
                  0001fb70    00000080     sysbios.aem4f : BIOS.obj (.text:ti_sysbios_knl_Clock_workFunc__E)
                  0001fbf0    0000007e     slnetifndk_msp432e4.aem4f : slnetifndk.oem4f (.text:SlNetIfNDK_getConnectionStatus)
                  0001fc6e    0000007e     slnetsock_release.a : slnetutils.oem4f (.text:setAddrInfo)
                  0001fcec    0000007c     nettool_ipv4.aem4f : config.oem4f (.text:CfgGetNextEntry)
                  0001fd68    0000007c     stk.aem4f : igmp.oem4f (.text:IGMPDoMCast)
                  0001fde4    0000007c               : igmp.oem4f (.text:IGMPJoin)
                  0001fe60    0000007c               : socket.oem4f (.text:NDK_getsockopt)
                  0001fedc    0000007c               : socket.oem4f (.text:NDK_setsockopt)
                  0001ff58    0000007c     netctrl_min_ipv4.aem4f : netsrv.oem4f (.text:NS_BootTask)
                  0001ffd4    0000007c     stk.aem4f : pbm.oem4f (.text:PBM_free)
                  00020050    0000007c     infrastructure.obj (.text:UART_write_prot)
                  000200cc    0000007c     rtsv7M4_T_le_v4SPD16_eabi.lib : fflush.c.obj (.text:fflush)
                  00020148    0000007c     os.aem4f : mem.oem4f (.text:mmBulkFree)
                  000201c4    0000007c     drivers_msp432e4.aem4f : UARTMSP432E4.oem4f (.text:writeData)
                  00020240    0000007a     msp432e4_driverlib.a : ssi.o (.text:SSIConfigSetExpClk)
                  000202ba    0000007a     stk.aem4f : sock.oem4f (.text:SockAccept)
                  00020334    0000007a     rtsv7M4_T_le_v4SPD16_eabi.lib : memset_t2.asm.obj (.text)
                  000203ae    00000078     stk.aem4f : socket.oem4f (.text:NDK_sendto)
                  00020426    00000002     --HOLE-- [fill = 0]
                  00020428    00000078               : nimu.oem4f (.text:NIMURegister)
                  000204a0    00000078     callbacks.obj (.text:SWIgpioButtonSw1)
                  00020518    00000078     callbacks.obj (.text:SWIgpioButtonSw2)
                  00020590    00000078     stk.aem4f : tcptime.oem4f (.text:TcpXmitTimer)
                  00020608    00000078               : fileuser.oem4f (.text:fdOpenSession)
                  00020680    00000078     os.aem4f : os_ll.oem4f (.text:llExit)
                  000206f8    00000076     stk.aem4f : pipe.oem4f (.text:PipeSend)
                  0002076e    00000076     msp432e4_driverlib.a : uart.o (.text:UARTConfigSetExpClk)
                  000207e4    00000075     stk.aem4f : tcptime.oem4f (.text:TcpTimeoutSackRexmt)
                  00020859    00000001     --HOLE-- [fill = 0]
                  0002085a    00000006     drivers_msp432e4.aem4f : ADCBufMSP432E4.oem4f (.text:ADCBufMSP432E4_control)
                  00020860    00000075     sysbios.aem4f : BIOS.obj (.text:xdc_runtime_System_formatNum__I)
                  000208d5    00000003     --HOLE-- [fill = 0]
                  000208d8    00000074     drivers_msp432e4.aem4f : EMACMSP432E4.oem4f (.text:EMACMSP432E4_processTransmitted)
                  0002094c    00000074     stk.aem4f : igmp.oem4f (.text:IGMPLeaveHostGroup)
                  000209c0    00000074               : socket.oem4f (.text:NDK_recvfrom)
                  00020a34    00000074               : nimu.oem4f (.text:NIMUShutdown)
                  00020aa8    00000074               : raweth.oem4f (.text:RawEthRxPacket)
                  00020b1c    00000074     slnetsock_release.a : slnetsock.oem4f (.text:SlNetSock_AllocVirtualSocket)
                  00020b90    00000074     stk.aem4f : sockpcb.oem4f (.text:SockPcbConnect)
                  00020c04    00000074     rtsv7M4_T_le_v4SPD16_eabi.lib : fclose.c.obj (.text:__TI_closefile)
                  00020c78    00000074     hal_timer.aem4f : lltimer.oem4f (.text:llTimerTick)
                  00020cec    00000004     dpl_msp432e4.aem4f : HwiP_tirtos.oem4f (.text:HwiP_enableInterrupt)
                  00020cf0    00000074     sysbios.aem4f : BIOS.obj (.text:xdc_runtime_Core_deleteObject__I)
                  00020d64    00000072     drivers_msp432e4.aem4f : TimerMSP432E4.oem4f (.text:TimerMSP432E4_start)
                  00020dd6    00000070     stk.aem4f : socket.oem4f (.text:NDK_send)
                  00020e46    00000002     --HOLE-- [fill = 0]
                  00020e48    00000070               : rtable.oem4f (.text:RtFlush)
                  00020eb8    00000070     netctrl_min_ipv4.aem4f : netsrv.oem4f (.text:SPConfig)
                  00020f28    00000070     stk.aem4f : sock.oem4f (.text:SockShutdown)
                  00020f98    00000070     nettool_ipv4.aem4f : dhcptags.oem4f (.text:dhcpDecodeType)
                  00021008    00000070     slnetsock_release.a : netdb.oem4f (.text:getaddrinfo)
                  00021078    00000070     os.aem4f : mem.oem4f (.text:mmBulkAlloc)
                  000210e8    00000070     sysbios.aem4f : BIOS.obj (.text:ti_sysbios_family_arm_lm4_Seconds_getTime__E)
                  00021158    00000070                   : BIOS.obj (.text:ti_sysbios_heaps_HeapMem_initPrimary__I)
                  000211c8    00000070     callbacks.obj (.text:timer0Callback)
                  00021238    0000006e     stk.aem4f : socket.oem4f (.text:NDK_recv)
                  000212a6    00000002     --HOLE-- [fill = 0]
                  000212a8    0000006e               : rtable.oem4f (.text:RtWalkNext)
                  00021316    0000006e     rtsv7M4_T_le_v4SPD16_eabi.lib : _printfi.c.obj (.text:_mcpy)
                  00021384    0000006e                                   : fd_tos_t2.asm.obj (.text)
                  000213f2    00000002     --HOLE-- [fill = 0]
                  000213f4    0000006d     stk.aem4f : node.oem4f (.text:NodeNew)
                  00021461    00000003     --HOLE-- [fill = 0]
                  00021464    0000006c     os.aem4f : ossys.oem4f (.text:DbgPrintf)
                  000214d0    0000006c     msp432e4_driverlib.a : emac.o (.text:EMACPHYConfigSet)
                  0002153c    0000006c     rtsv7M4_T_le_v4SPD16_eabi.lib : hostrename.c.obj (.text:HOSTrename)
                  000215a8    0000006c     stk.aem4f : node.oem4f (.text:NodeTreeNew)
                  00021614    0000006c               : pbm.oem4f (.text:PBM_open)
                  00021680    0000006c     drivers_msp432e4.aem4f : PowerMSP432E4.oem4f (.text:Power_releaseDependency)
                  000216ec    0000006c     stk.aem4f : raweth.oem4f (.text:RawEthTxPacket)
                  00021758    0000006c     slnetsock_release.a : slnetutils.oem4f (.text:SlNetUtil_str2BinIpV4)
                  000217c4    0000006c     infrastructure.obj (.text:UART_write_prot_sl)
                  00021830    0000006c     hal_timer.aem4f : lltimer.oem4f (.text:llTimerGetTime)
                  0002189c    00000004     os.aem4f : oem.oem4f (.text:NDK_HwiP_disable)
                  000218a0    0000006c     sysbios.aem4f : BIOS.obj (.text:pthread_cancel)
                  0002190c    0000006c     tasks.obj (.text:taskPayload)
                  00021978    0000006c     sysbios.aem4f : BIOS.obj (.text:ti_sysbios_knl_Swi_restoreHwi__E)
                  000219e4    0000006a     stk.aem4f : socket.oem4f (.text:NDK_accept)
                  00021a4e    0000006a               : tcpprot.oem4f (.text:TcpPrInherit)
                  00021ab8    00000068     drivers_msp432e4.aem4f : GPIOMSP432E4.oem4f (.text:GPIO_hwiIntFxn)
                  00021b20    00000068     rtsv7M4_T_le_v4SPD16_eabi.lib : hostlseek.c.obj (.text:HOSTlseek)
                  00021b88    00000068     stk.aem4f : socket.oem4f (.text:NDK_socket)
                  00021bf0    00000068     drivers_msp432e4.aem4f : PowerMSP432E4.oem4f (.text:Power_setDependency)
                  00021c58    00000068     stk.aem4f : sock.oem4f (.text:SockListen)
                  00021cc0    00000068               : sockpcb.oem4f (.text:SockPcbFindRaw)
                  00021d28    00000068     drivers_msp432e4.aem4f : TimerMSP432E4.oem4f (.text:TimerMSP432E4_allocateTimerResource)
                  00021d90    00000068     stk.aem4f : rtable.oem4f (.text:_RtNodeInsert)
                  00021df8    00000068     rtsv7M4_T_le_v4SPD16_eabi.lib : sscanf.c.obj (.text:_chkmbc)
                  00021e60    00000068                                   : copy_decompress_lzss.c.obj (.text:decompress:lzss:__TI_decompress_lzss)
                  00021ec8    00000068     sysbios.aem4f : BIOS.obj (.text:pthread_exit)
                  00021f30    00000068     drivers_msp432e4.aem4f : UARTMSP432E4.oem4f (.text:readIsrBinaryBlocking)
                  00021f98    00000066     ti_ndk_config.obj (.text:configTcp)
                  00021ffe    00000002     --HOLE-- [fill = 0]
                  00022000    00000064     nettool_ipv4.aem4f : config.oem4f (.text:CfgFree)
                  00022064    00000064     stk.aem4f : file.oem4f (.text:FdWaitEvent)
                  000220c8    00000064               : pbm.oem4f (.text:PBMQ_enq)
                  0002212c    00000064     drivers_msp432e4.aem4f : PowerMSP432E4.oem4f (.text:Power_init)
                  00022190    00000064     slnetifndk_msp432e4.aem4f : slnetifndk.oem4f (.text:SlNetIfNDK_getHostByName)
                  000221f4    00000064     stk.aem4f : sockint.oem4f (.text:SockSpawnAbort)
                  00022258    00000064               : tcpprot.oem4f (.text:TcpPrGetOption)
                  000222bc    00000064               : udp.oem4f (.text:UdpChecksum)
                  00022320    00000064     rtsv7M4_T_le_v4SPD16_eabi.lib : s_frexp.c.obj (.text:frexp)
                  00022384    00000064                                   : fseek.c.obj (.text:fseek)
                  000223e8    00000064     infrastructure.obj (.text:msgHelpAbout)
                  0002244c    00000064     infrastructure.obj (.text:msgHelpPrint)
                  000224b0    00000064     drivers_msp432e4.aem4f : UARTMSP432E4.oem4f (.text:readIsrBinaryCallback)
                  00022514    00000004     os.aem4f : NDK_SemaphoreP_tirtos.oem4f (.text:NDK_SemaphoreP_post)
                  00022518    00000064     sysbios.aem4f : BIOS.obj (.text:ti_sysbios_family_arm_lm4_Timer_Module_startup__E)
                  0002257c    00000004     os.aem4f : ossys.oem4f (.text:NDK_vsprintf)
                  00022580    00000064     sysbios.aem4f : BIOS.obj (.text:ti_sysbios_family_arm_m3_Hwi_dispatchC__I)
                  000225e4    00000064     msp432e4_driverlib.a : udma.o (.text:uDMAChannelAttributeDisable)
                  00022648    00000064     stk.aem4f : lliin.oem4f (.text:updateRtTable)
                  000226ac    00000062               : ipin.oem4f (.text:IPRouteIP)
                  0002270e    00000002     --HOLE-- [fill = 0]
                  00022710    00000062               : sb.oem4f (.text:SBNew)
                  00022772    00000062     rtsv7M4_T_le_v4SPD16_eabi.lib : _io_perm.c.obj (.text:__TI_wrt_ok)
                  000227d4    00000060     nettool_ipv4.aem4f : config.oem4f (.text:CfgGetEntryCnt)
                  00022834    00000060     msp432e4_driverlib.a : emac.o (.text:EMACConfigGet)
                  00022894    00000060                          : emac.o (.text:EMACIntDisable)
                  000228f4    00000060     rtsv7M4_T_le_v4SPD16_eabi.lib : hostopen.c.obj (.text:HOSTopen)
                  00022954    00000060     stk.aem4f : socket.oem4f (.text:NDK_getpeername)
                  000229b4    00000060               : socket.oem4f (.text:NDK_getsockname)
                  00022a14    00000060               : socket.oem4f (.text:NDK_shutdown)
                  00022a74    00000060               : nimu.oem4f (.text:NIMUUnregister)
                  00022ad4    00000060               : node.oem4f (.text:NodeFind)
                  00022b34    00000060               : rtc.oem4f (.text:RTCMsg)
                  00022b94    00000060     slnetsock_release.a : slnetsock.oem4f (.text:SlNetSock_recvFrom)
                  00022bf4    00000060                         : slnetsock.oem4f (.text:SlNetSock_sendTo)
                  00022c54    00000060     os.aem4f : task.oem4f (.text:TaskCreate)
                  00022cb4    00000060     msp432e4_driverlib.a : timer.o (.text:TimerControlTrigger)
                  00022d14    00000060     nettool_ipv4.aem4f : dhcptags.oem4f (.text:dhcpBuildOptions)
                  00022d74    00000004     stk.aem4f : node.oem4f (.text:NodeSetRt)
                  00022d78    00000060     sysbios.aem4f : BIOS.obj (.text:ti_sysbios_knl_Semaphore_post__E)
                  00022dd8    00000060                   : BIOS.obj (.text:ti_sysbios_knl_Swi_run__I)
                  00022e38    0000005e     msp432e4_driverlib.a : emac.o (.text:EMACIntEnable)
                  00022e96    0000005e     stk.aem4f : route.oem4f (.text:RtRemove)
                  00022ef4    0000005e     nettool_ipv4.aem4f : dhcpsm.oem4f (.text:StateSelecting)
                  00022f52    0000005e     stk.aem4f : vlan.oem4f (.text:VLANReceivePacket)
                  00022fb0    0000005c     drivers_msp432e4.aem4f : ADCBufMSP432E4.oem4f (.text:ADCBufMSP432E4_init)
                  0002300c    0000005c     nettool_ipv4.aem4f : config.oem4f (.text:CfgSetExecuteOrder)
                  00023068    0000005c     msp432e4_driverlib.a : emac.o (.text:EMACAddrSet)
                  000230c4    0000005c                          : emac.o (.text:EMACIntStatus)
                  00023120    0000005c                          : gpio.o (.text:GPIODirModeSet)
                  0002317c    0000005c     stk.aem4f : nimu.oem4f (.text:NIMUIoctlSpecialCmd)
                  000231d8    0000005c     netctrl_min_ipv4.aem4f : netsrv.oem4f (.text:SPService)
                  00023234    0000005c     rtsv7M4_T_le_v4SPD16_eabi.lib : close.c.obj (.text:close)
                  00023290    0000005c     drivers_msp432e4.aem4f : ADCBufMSP432E4.oem4f (.text:completeConversion)
                  000232ec    0000005c                            : TimerMSP432E4.oem4f (.text:getPowerMgrId)
                  00023348    0000005c                            : UARTMSP432E4.oem4f (.text:getPowerResourceId)
                  000233a4    0000005c     infrastructure.obj (.text:msgHelpRem)
                  00023400    0000005c     sysbios.aem4f : BIOS.obj (.text:ti_sysbios_knl_Swi_schedule__I)
                  0002345c    00000004     stk.aem4f : rawethsock.oem4f (.text:RawEthSockGetCtx)
                  00023460    0000005c     sysbios.aem4f : BIOS.obj (.text:ti_sysbios_knl_Task_startCore__E)
                  000234bc    00000004     stk.aem4f : rawethsock_prot.oem4f (.text:RawEthSockPrAttach)
                  000234c0    0000005c     sysbios.aem4f : BIOS.obj (.text:xdc_runtime_Startup_exec__E)
                  0002351c    0000005a     stk.aem4f : rawethsock.oem4f (.text:RawEthSockCheck)
                  00023576    0000005a               : route.oem4f (.text:RtRedirect)
                  000235d0    0000005a               : tcpprot.oem4f (.text:TcpValidateMetrics)
                  0002362a    0000005a     nettool_ipv4.aem4f : dhcpbild.oem4f (.text:dhcpBuildDecline)
                  00023684    00000058     stk.aem4f : bind.oem4f (.text:BindFree)
                  000236dc    00000058     msp432e4_driverlib.a : emac.o (.text:EMACIntClear)
                  00023734    00000058     drivers_msp432e4.aem4f : GPIOMSP432E4.oem4f (.text:GPIO_setCallback)
                  0002378c    00000058     rtsv7M4_T_le_v4SPD16_eabi.lib : hostread.c.obj (.text:HOSTread)
                  000237e4    00000058                                   : hostwrite.c.obj (.text:HOSTwrite)
                  0002383c    00000058     stk.aem4f : igmp.oem4f (.text:IGMPTimer)
                  00023894    00000058               : tcp.oem4f (.text:TcpChecksum)
                  000238ec    00000058     drivers_msp432e4.aem4f : UDMAMSP432E4.oem4f (.text:UDMAMSP432E4_open)
                  00023944    00000058     boot.aem4f : boot.oem4f (.text)
                  0002399c    00000058     tasks.obj (.text:taskUART7Read)
                  000239f4    00000058     sysbios.aem4f : m3_Hwi_asm_switch.obj (.text:ti_sysbios_family_arm_m3_Hwi_initStacks__E)
                  00023a4c    00000056     rtsv7M4_T_le_v4SPD16_eabi.lib : _printfi.c.obj (.text:_pconv_f)
                  00023aa2    00000056     infrastructure.obj (.text:getNextInp)
                  00023af8    00000056     drivers_msp432e4.aem4f : SPIMSP432E4DMA.oem4f (.text:initHw)
                  00023b4e    00000002     --HOLE-- [fill = 0]
                  00023b50    00000054     nettool_ipv4.aem4f : config.oem4f (.text:CfgEntryDeRef)
                  00023ba4    00000054     drivers_msp432e4.aem4f : GPIOMSP432E4.oem4f (.text:GPIO_write)
                  00023bf8    00000054     stk.aem4f : rawethsock_pcb.oem4f (.text:RawEthSockPcbAttach)
                  00023c4c    00000054               : tcptime.oem4f (.text:TcpTimeoutPersist)
                  00023ca0    00000054     rtsv7M4_T_le_v4SPD16_eabi.lib : _ltoa.c.obj (.text:__TI_ltoa)
                  00023cf4    00000004     stk.aem4f : rawethsock_prot.oem4f (.text:RawEthSockPrDetach)
                  00023cf8    00000054     sysbios.aem4f : BIOS.obj (.text:ti_sysbios_family_arm_lm4_Timer_initDevice__I)
                  00023d4c    00000054     release_pem4f.oem4f (.text:ti_sysbios_family_arm_m3_Hwi_create)
                  00023da0    00000054     sysbios.aem4f : BIOS.obj (.text:timer_gettime)
                  00023df4    00000052     nettool_ipv4.aem4f : dnscomn.oem4f (.text:DNSReplyFree)
                  00023e46    00000052     stk.aem4f : igmp.oem4f (.text:IGMPLeave)
                  00023e98    00000052               : socket.oem4f (.text:NDK_bind)
                  00023eea    00000052               : tcpprot.oem4f (.text:TcpPrDetach)
                  00023f3c    00000052     rtsv7M4_T_le_v4SPD16_eabi.lib : _printfi.c.obj (.text:_ecpy)
                  00023f8e    00000002     --HOLE-- [fill = 0]
                  00023f90    00000050     msp432e4_driverlib.a : emac.o (.text:EMACConfigSet)
                  00023fe0    00000050     stk.aem4f : socket.oem4f (.text:NDK_connect)
                  00024030    00000050               : route.oem4f (.text:RtNew)
                  00024080    00000050     slnetsock_release.a : slnetif.oem4f (.text:SlNetIf_queryIf)
                  000240d0    00000050     drivers_msp432e4.aem4f : UARTMSP432E4.oem4f (.text:UARTMSP432E4_hwiIntFxn)
                  00024120    00000050     callbacks.obj (.text:adcBufCallback)
                  00024170    00000050     drivers_msp432e4.aem4f : ADCBufMSP432E4.oem4f (.text:getPowerResourceId)
                  000241c0    00000050     sysbios.aem4f : BIOS.obj (.text:ti_sysbios_family_arm_m3_Hwi_Module_startup__E)
                  00024210    00000050                   : BIOS.obj (.text:ti_sysbios_knl_Clock_Instance_init__E)
                  00024260    00000050     release_pem4f.oem4f (.text:ti_sysbios_knl_Task_create)
                  000242b0    0000004e     msp432e4_driverlib.a : emac.o (.text:EMACPHYWrite)
                  000242fe    0000004e     stk.aem4f : node.oem4f (.text:NodeDeRef)
                  0002434c    0000004e     drivers_msp432e4.aem4f : TimerMSP432E4.oem4f (.text:TimerMSP432E4_stop)
                  0002439a    0000004e     stk.aem4f : file.oem4f (.text:fdint_lockfd)
                  000243e8    0000004e     drivers_msp432e4.aem4f : TimerMSP432E4.oem4f (.text:initHw)
                  00024436    0000004e     os.aem4f : mem.oem4f (.text:mmCopy)
                  00024484    0000004c     msp432e4_driverlib.a : emac.o (.text:EMACPHYRead)
                  000244d0    0000004c     nettool_ipv4.aem4f : ipaddr.oem4f (.text:NtAddNetwork)
                  0002451c    0000004c     slnetsock_release.a : slnetsock.oem4f (.text:SlNetSock_freeVirtualSocket)
                  00024568    0000004c     stk.aem4f : sockint.oem4f (.text:SockValidateRoute)
                  000245b4    0000004c               : timer.oem4f (.text:TimerListInsert)
                  00024600    0000004c     drivers_msp432e4.aem4f : TimerMSP432E4.oem4f (.text:TimerMSP432E4_freeTimerResource)
                  0002464c    0000004c                            : UARTMSP432E4.oem4f (.text:UARTMSP432E4_writePolling)
                  00024698    0000004c     rtsv7M4_T_le_v4SPD16_eabi.lib : fflush.c.obj (.text:__TI_doflush)
                  000246e4    0000004c                                   : atoi.c.obj (.text:atoi)
                  00024730    0000004c                                   : cpy_tbl.c.obj (.text:copy_in)
                  0002477c    0000004c     os.aem4f : mem.oem4f (.text:mmZeroInit)
                  000247c8    0000004c     drivers_msp432e4.aem4f : UARTMSP432E4.oem4f (.text:ringBufGet)
                  00024814    0000004c     rtsv7M4_T_le_v4SPD16_eabi.lib : snprintf.c.obj (.text:snprintf)
                  00024860    0000004c     ti_ndk_config.obj (.text:ti_ndk_config_ip_init)
                  000248ac    00000004     drivers_msp432e4.aem4f : SPIMSP432E4DMA.oem4f (.text:SPIMSP432E4DMA_init)
                  000248b0    0000004c     sysbios.aem4f : BIOS.obj (.text:ti_sysbios_heaps_HeapMem_getStats__E)
                  000248fc    00000004     os.aem4f : semaphore.oem4f (.text:SemReset)
                  00024900    0000004c     sysbios.aem4f : BIOS.obj (.text:ti_sysbios_knl_Swi_runLoop__I)
                  0002494c    00000004     dpl_msp432e4.aem4f : SemaphoreP_tirtos.oem4f (.text:SemaphoreP_post)
                  00024950    0000004c     sysbios.aem4f : BIOS.obj (.text:ti_sysbios_knl_Task_allBlockedFunction__I)
                  0002499c    00000004     slnetsock_release.a : slnetif.oem4f (.text:SlNetIf_init)
                  000249a0    0000004c     sysbios.aem4f : BIOS.obj (.text:ti_sysbios_knl_Task_schedule__I)
                  000249ec    0000004c     msp432e4_driverlib.a : udma.o (.text:uDMAChannelAssign)
                  00024a38    0000004c                          : udma.o (.text:uDMAChannelModeGet)
                  00024a84    0000004a     drivers_msp432e4.aem4f : ADCBufMSP432E4.oem4f (.text:ADCBufMSP432E4_convert)
                  00024ace    0000004a     netctrl_min_ipv4.aem4f : netsrv.oem4f (.text:ServiceKill)
                  00024b18    0000004a     stk.aem4f : sock.oem4f (.text:SockDisconnect)
                  00024b62    00000002     --HOLE-- [fill = 0]
                  00024b64    0000004a               : timer.oem4f (.text:TimerNew)
                  00024bae    0000004a     nettool_ipv4.aem4f : config.oem4f (.text:_CfgEntryScan)
                  00024bf8    00000048                        : config.oem4f (.text:CfgNew)
                  00024c40    00000048     stk.aem4f : lli.oem4f (.text:LLIMsg)
                  00024c88    00000048               : node.oem4f (.text:NodeWalk)
                  00024cd0    00000048               : rawethsock_pcb.oem4f (.text:RawEthSockPcbDetach)
                  00024d18    00000048     slnetsock_release.a : slnetsock.oem4f (.text:SlNetSock_init)
                  00024d60    00000048                         : slnetsock.oem4f (.text:SlNetSock_setOpt)
                  00024da8    00000048     stk.aem4f : sockpcb.oem4f (.text:SockPcbResolveChain)
                  00024df0    00000048               : tcpprot.oem4f (.text:TcpDrop)
                  00024e38    00000048     drivers_msp432e4.aem4f : UARTMSP432E4.oem4f (.text:UARTMSP432E4_writeCancel)
                  00024e80    00000048     stk.aem4f : lli.oem4f (.text:_LLIExpListInsert)
                  00024ec8    00000048               : rtable.oem4f (.text:_RtExpListInsert)
                  00024f10    00000048     infrastructure.obj (.text:msgHelpClear)
                  00024f58    00000048     rtsv7M4_T_le_v4SPD16_eabi.lib : fd_toi_t2.asm.obj (.text)
                  00024fa0    00000048     ti_ndk_config.obj (.text:ti_ndk_config_Global_startupFxn)
                  00024fe8    00000048     sysbios.aem4f : BIOS.obj (.text:ti_sysbios_family_arm_lm4_Timer_enableTimers__I)
                  00025030    00000048                   : BIOS.obj (.text:ti_sysbios_family_arm_m3_Hwi_disableInterrupt__E)
                  00025078    00000048                   : BIOS.obj (.text:ti_sysbios_family_arm_m3_Hwi_enableInterrupt__E)
                  000250c0    00000048                   : BIOS.obj (.text:ti_sysbios_knl_Mailbox_Module_startup__E)
                  00025108    00000048                   : BIOS.obj (.text:ti_sysbios_knl_Task_deleteTerminatedTasksFunc__I)
                  00025150    00000048                   : BIOS.obj (.text:xdc_runtime_Core_assignParams__I)
                  00025198    00000046     nettool_ipv4.aem4f : ipaddr.oem4f (.text:NtIfIdx2Ip)
                  000251de    00000046     stk.aem4f : rawethsock.oem4f (.text:RawEthSockSend)
                  00025224    00000046     drivers_msp432e4.aem4f : RingBuf.oem4f (.text:RingBuf_put)
                  0002526a    00000002     --HOLE-- [fill = 0]
                  0002526c    00000046     os.aem4f : semaphore.oem4f (.text:SemCreateBinary)
                  000252b2    00000046     stk.aem4f : tcpprot.oem4f (.text:TcpPrCtlError)
                  000252f8    00000046     drivers_msp432e4.aem4f : TimerMSP432E4.oem4f (.text:getPrescaler)
                  0002533e    00000002     --HOLE-- [fill = 0]
                  00025340    00000044                            : ADCBuf.oem4f (.text:ADCBuf_init)
                  00025384    00000044     nettool_ipv4.aem4f : dnspkt.oem4f (.text:DNSBuildRequest)
                  000253c8    00000044     msp432e4_driverlib.a : gpio.o (.text:GPIOPinConfigure)
                  0002540c    00000044     rtsv7M4_T_le_v4SPD16_eabi.lib : hostclose.c.obj (.text:HOSTclose)
                  00025450    00000044                                   : hostunlink.c.obj (.text:HOSTunlink)
                  00025494    00000044     stk.aem4f : icmp.oem4f (.text:ICMPChecksum)
                  000254d8    00000044               : ipfrag.oem4f (.text:IPReasmFree)
                  0002551c    00000044               : lli.oem4f (.text:LLIGetValidTime)
                  00025560    00000044               : rtable.oem4f (.text:RouteMsg)
                  000255a4    00000044               : rtable.oem4f (.text:RtWalkEnd)
                  000255e8    00000044     drivers_msp432e4.aem4f : SPI.oem4f (.text:SPI_init)
                  0002562c    00000044     slnetsock_release.a : slnetutils.oem4f (.text:SlNetUtil_strTok)
                  00025670    00000044     stk.aem4f : sock.oem4f (.text:SockIntAbort)
                  000256b4    00000044               : sockpcb.oem4f (.text:SockPcbDetach)
                  000256f8    00000044     msp432e4_driverlib.a : sysctl.o (.text:SysCtlPeripheralPresent)
                  0002573c    00000044                          : sysctl.o (.text:SysCtlPeripheralReady)
                  00025780    00000044     drivers_msp432e4.aem4f : Timer.oem4f (.text:Timer_init)
                  000257c4    00000044                            : UART.oem4f (.text:UART_init)
                  00025808    00000044     rtsv7M4_T_le_v4SPD16_eabi.lib : getdevice.c.obj (.text:getdevice)
                  0002584c    00000044                                   : fd_tou_t2.asm.obj (.text)
                  00025890    00000044     ti_net_config.obj (.text:ti_net_SlNet_initConfig)
                  000258d4    00000004     slnetsock_release.a : slnetutils.oem4f (.text:SlNetUtil_init)
                  000258d8    00000044     sysbios.aem4f : BIOS.obj (.text:ti_sysbios_family_arm_lm4_Timer_isrStub__E)
                  0002591c    00000004     stk.aem4f : sock.oem4f (.text:SockGetCtx)
                  00025920    00000044     sysbios.aem4f : BIOS.obj (.text:ti_sysbios_family_arm_m3_Hwi_getStackInfo__E)
                  00025964    00000004     os.aem4f : task.oem4f (.text:TaskSelf)
                  00025968    00000044     sysbios.aem4f : BIOS.obj (.text:ti_sysbios_knl_Mailbox_postInit__I)
                  000259ac    00000004     os.aem4f : task.oem4f (.text:TaskSetPri)
                  000259b0    00000044     sysbios.aem4f : BIOS.obj (.text:ti_sysbios_knl_Swi_post__E)
                  000259f4    00000004     hal_ser_stub.aem4f : llserstb.oem4f (.text:_llSerialInit)
                  000259f8    00000044     sysbios.aem4f : BIOS.obj (.text:xdc_runtime_System_atexit__E)
                  00025a3c    00000042     stk.aem4f : socket.oem4f (.text:NDK_listen)
                  00025a7e    00000042               : rawethsock.oem4f (.text:RawEthSockShutdown)
                  00025ac0    00000042               : tcpprot.oem4f (.text:TcpPrSendOOB)
                  00025b02    00000042               : fileuser.oem4f (.text:fdCloseSession)
                  00025b44    00000040     drivers_msp432e4.aem4f : ADCBuf.oem4f (.text:ADCBuf_open)
                  00025b84    00000040     dpl_msp432e4.aem4f : ClockP_tirtos.oem4f (.text:ClockP_create)
                  00025bc4    00000040                        : HwiP_tirtos.oem4f (.text:HwiP_create)
                  00025c04    00000040     stk.aem4f : lliin.oem4f (.text:LLIValidateRoute)
                  00025c44    00000040               : pbm.oem4f (.text:PBM_copy)
                  00025c84    00000040     drivers_msp432e4.aem4f : RingBuf.oem4f (.text:RingBuf_get)
                  00025cc4    00000040                            : SPI.oem4f (.text:SPI_open)
                  00025d04    00000040     os.aem4f : semaphore.oem4f (.text:SemCreate)
                  00025d44    00000040     slnetsock_release.a : slnetsock.oem4f (.text:SlNetSock_bind)
                  00025d84    00000040     stk.aem4f : sockpcb.oem4f (.text:SockPcbRtChange)
                  00025dc4    00000040     msp432e4_driverlib.a : sysctl.o (.text:SysCtlPeripheralDisable)
                  00025e04    00000040                          : sysctl.o (.text:SysCtlPeripheralEnable)
                  00025e44    00000040                          : sysctl.o (.text:SysCtlPeripheralPowerOff)
                  00025e84    00000040                          : sysctl.o (.text:SysCtlPeripheralPowerOn)
                  00025ec4    00000040                          : sysctl.o (.text:SysCtlPeripheralSleepDisable)
                  00025f04    00000040                          : sysctl.o (.text:SysCtlPeripheralSleepEnable)
                  00025f44    00000040     stk.aem4f : tcpprot.oem4f (.text:TcpPrSend)
                  00025f84    00000040     drivers_msp432e4.aem4f : Timer.oem4f (.text:Timer_open)
                  00025fc4    00000040                            : UARTMSP432E4.oem4f (.text:UARTMSP432E4_read)
                  00026004    00000040                            : UART.oem4f (.text:UART_open)
                  00026044    00000040                            : UDMAMSP432E4.oem4f (.text:UDMAMSP432E4_init)
                  00026084    00000040                            : SPIMSP432E4DMA.oem4f (.text:getPeripheralResetId)
                  000260c4    00000040     rtsv7M4_T_le_v4SPD16_eabi.lib : u_divt2.asm.obj (.text)
                  00026104    00000040     infrastructure.obj (.text:runClear)
                  00026144    00000040     rtsv7M4_T_le_v4SPD16_eabi.lib : sprintf.c.obj (.text:sprintf)
                  00026184    00000004                                   : exit.c.obj (.text:abort:abort)
                  00026188    00000040     sysbios.aem4f : BIOS.obj (.text:ti_sysbios_family_arm_lm4_Timer_startup__E)
                  000261c8    00000040                   : BIOS.obj (.text:ti_sysbios_heaps_HeapMem_Instance_init__E)
                  00026208    00000040                   : BIOS.obj (.text:ti_sysbios_knl_Task_yield__E)
                  00026248    00000040     msp432e4_driverlib.a : udma.o (.text:uDMAInit)
                  00026288    0000003e     nettool_ipv4.aem4f : dhcpmain.oem4f (.text:DHCPClose)
                  000262c6    00000002     --HOLE-- [fill = 0]
                  000262c8    0000003e     stk.aem4f : nimu.oem4f (.text:NIMUAllocateName)
                  00026306    0000003e     slnetsock_release.a : slnetsock.oem4f (.text:SlNetSock_close)
                  00026344    0000003e     stk.aem4f : tcpprot.oem4f (.text:TcpPrDisconnect)
                  00026382    0000003e     rtsv7M4_T_le_v4SPD16_eabi.lib : _printfi.c.obj (.text:_fcpy)
                  000263c0    0000003e     stk.aem4f : file.oem4f (.text:fdint_unlockfd)
                  000263fe    0000003c     nettool_ipv4.aem4f : config.oem4f (.text:CfgEntryGetData)
                  0002643a    00000002     --HOLE-- [fill = 0]
                  0002643c    0000003c     stk.aem4f : exec.oem4f (.text:ExecClose)
                  00026478    0000003c               : node.oem4f (.text:NodeUpdatePL)
                  000264b4    0000003c               : rtable.oem4f (.text:RtWalkBegin)
                  000264f0    0000003c     dpl_msp432e4.aem4f : SemaphoreP_tirtos.oem4f (.text:SemaphoreP_create)
                  0002652c    0000003c     stk.aem4f : tcpprot.oem4f (.text:TcpPrConnect)
                  00026568    0000003c               : tcptime.oem4f (.text:TcpSetPersist)
                  000265a4    0000003c               : rtc.oem4f (.text:_RTCSendRtAdv)
                  000265e0    0000003c               : rtable.oem4f (.text:_RtNodeRemove)
                  0002661c    0000003c     hal_timer.aem4f : lltimer.oem4f (.text:_llTimerInit)
                  00026658    0000003c     infrastructure.obj (.text:msgPrint)
                  00026694    00000004     stk.aem4f : listlib.oem4f (.text:list_get_head)
                  00026698    0000003c     sysbios.aem4f : BIOS.obj (.text:ti_sysbios_family_arm_m3_Hwi_Instance_finalize__E)
                  000266d4    0000003c     release_pem4f.oem4f (.text:ti_sysbios_knl_Clock_create)
                  00026710    0000003c     sysbios.aem4f : BIOS.obj (.text:ti_sysbios_knl_Swi_restore__E)
                  0002674c    00000004     stk.aem4f : listlib.oem4f (.text:list_get_next)
                  00026750    0000003c     sysbios.aem4f : BIOS.obj (.text:timer_delete)
                  0002678c    0000003c     msp432e4_driverlib.a : udma.o (.text:uDMAChannelControlSet)
                  000267c8    0000003c     sysbios.aem4f : BIOS.obj (.text:xdc_runtime_System_processAtExit__E)
                  00026804    0000003a     stk.aem4f : ip.oem4f (.text:IPChecksum)
                  0002683e    00000002     --HOLE-- [fill = 0]
                  00026840    00000038               : ipfrag.oem4f (.text:IPReasmTimeout)
                  00026878    00000038               : node.oem4f (.text:NodeGetRt)
                  000268b0    00000038               : sb.oem4f (.text:SBSetMax)
                  000268e8    00000038     slnetsock_release.a : slnetif.oem4f (.text:SlNetIf_configCheck)
                  00026920    00000038                         : slnetutils.oem4f (.text:SlNetUtil_htonl)
                  00026958    00000038     stk.aem4f : tcpprot.oem4f (.text:TcpClose)
                  00026990    00000038               : timer.oem4f (.text:TimerHSTick)
                  000269c8    00000038     drivers_msp432e4.aem4f : TimerMSP432E4.oem4f (.text:TimerMSP432E4_hwiIntFunction)
                  00026a00    00000038     rtsv7M4_T_le_v4SPD16_eabi.lib : trgmsg.c.obj (.text:__TI_writemsg)
                  00026a38    00000038     nettool_ipv4.aem4f : dhcptags.oem4f (.text:dhcpOptionsClear)
                  00026a70    00000038     stk.aem4f : file.oem4f (.text:fdint_waitevent)
                  00026aa8    00000038     rtsv7M4_T_le_v4SPD16_eabi.lib : fs_tod_t2.asm.obj (.text)
                  00026ae0    00000038                                   : sscanf.c.obj (.text:sscanf)
                  00026b18    00000038     sysbios.aem4f : BIOS.obj (.text:ti_sysbios_knl_Task_processVitalTaskFlag__I)
                  00026b50    00000036     drivers_msp432e4.aem4f : ADCBufMSP432E4.oem4f (.text:ADCBufMSP432E4_convertAdjustedToMicroVolts)
                  00026b86    00000036     msp432e4_driverlib.a : timer.o (.text:TimerControlStall)
                  00026bbc    00000036     drivers_msp432e4.aem4f : UARTMSP432E4.oem4f (.text:UARTMSP432E4_readCancel)
                  00026bf2    00000036     rtsv7M4_T_le_v4SPD16_eabi.lib : strncpy.c.obj (.text:strncpy)
                  00026c28    00000034     nettool_ipv4.aem4f : config.oem4f (.text:CfgSetService)
                  00026c5c    00000034     drivers_msp432e4.aem4f : EMACMSP432E4.oem4f (.text:EMACMSP432E4_emacPoll)
                  00026c90    00000034     stk.aem4f : nimu.oem4f (.text:NIMUFindByName)
                  00026cc4    00000034               : rawethsock.oem4f (.text:RawEthSockClose)
                  00026cf8    00000034               : rawethsock.oem4f (.text:RawEthSockNotify)
                  00026d2c    00000034     slnetsock_release.a : slnetutils.oem4f (.text:SlNetUtil_htons)
                  00026d60    00000034     stk.aem4f : sockprot.oem4f (.text:SockPrCtlError)
                  00026d94    00000034     drivers_msp432e4.aem4f : TimerMSP432E4.oem4f (.text:TimerMSP432E4_close)
                  00026dc8    00000034     rtsv7M4_T_le_v4SPD16_eabi.lib : fopen.c.obj (.text:__TI_cleanup)
                  00026dfc    00000034                                   : trgmsg.c.obj (.text:__TI_readmsg)
                  00026e30    00000034     sysbios.aem4f : BIOS.obj (.text:_pthread_delete$44)
                  00026e64    00000034     slnetifndk_msp432e4.aem4f : slnetifndk.oem4f (.text:addSktToTable)
                  00026e98    00000034     nettool_ipv4.aem4f : dhcpbild.oem4f (.text:dhcpBuildDiscover)
                  00026ecc    00000034     drivers_msp432e4.aem4f : SPIMSP432E4DMA.oem4f (.text:getPowerMgrId)
                  00026f00    00000034     os.aem4f : mem.oem4f (.text:mmUnInitPage)
                  00026f34    00000034              : ossys.oem4f (.text:stricmp)
                  00026f68    00000034     rtsv7M4_T_le_v4SPD16_eabi.lib : strstr.c.obj (.text:strstr)
                  00026f9c    00000034     release_pem4f.oem4f (.text:ti_sysbios_knl_Semaphore_create)
                  00026fd0    00000032     nettool_ipv4.aem4f : config.oem4f (.text:CfgGetImmediate)
                  00027002    00000032     stk.aem4f : pipe.oem4f (.text:PipeCheck)
                  00027034    00000032               : route.oem4f (.text:RtDeRef)
                  00027066    00000032               : route.oem4f (.text:RtSetFailure)
                  00027098    00000032               : sb.oem4f (.text:SBFlush)
                  000270ca    00000032     nettool_ipv4.aem4f : config.oem4f (.text:_CfgAcquire)
                  000270fc    00000032                        : dhcpsm.oem4f (.text:dhcpIPRemove)
                  0002712e    00000002     --HOLE-- [fill = 0]
                  00027130    00000032     sysbios.aem4f : BIOS.obj (.text:ti_sysbios_hal_Hwi_initStack)
                  00027162    00000006     drivers_msp432e4.aem4f : SPIMSP432E4DMA.oem4f (.text:SPIMSP432E4DMA_control)
                  00027168    00000032     sysbios.aem4f : BIOS.obj (.text:xdc_runtime_System_putchar__I)
                  0002719a    00000002     --HOLE-- [fill = 0]
                  0002719c    00000030     ti_drivers_config.obj (.text:Board_init)
                  000271cc    00000030     drivers_msp432e4.aem4f : EMACMSP432E4.oem4f (.text:EMACMSP432E4_isLinkUp)
                  000271fc    00000030                            : GPIOMSP432E4.oem4f (.text:GPIOMSP432E4_undoPinConfig)
                  0002722c    00000030                            : GPIOMSP432E4.oem4f (.text:GPIO_enableInt)
                  0002725c    00000030                            : GPIOMSP432E4.oem4f (.text:GPIO_read)
                  0002728c    00000030     netctrl_min_ipv4.aem4f : netsrv.oem4f (.text:NS_PreBoot)
                  000272bc    00000030     slnetsock_release.a : slnetif.oem4f (.text:SlNetIf_getIDByName)
                  000272ec    00000030                         : slnetutils.oem4f (.text:SlNetUtil_gaiStrErr)
                  0002731c    00000030     stk.aem4f : sock.oem4f (.text:SockBind)
                  0002734c    00000030               : sock.oem4f (.text:SockGetName)
                  0002737c    00000030               : sockpcb.oem4f (.text:SockPcbAttach)
                  000273ac    00000030     msp432e4_driverlib.a : uart.o (.text:UARTDisable)
                  000273dc    00000030     rtsv7M4_T_le_v4SPD16_eabi.lib : snprintf.c.obj (.text:_outs)
                  0002740c    00000030     nettool_ipv4.aem4f : dhcpsock.oem4f (.text:dhcpPacketSend)
                  0002743c    00000030     stk.aem4f : file.oem4f (.text:fdint_setevent)
                  0002746c    00000030     rtsv7M4_T_le_v4SPD16_eabi.lib : getdevice.c.obj (.text:finddevice)
                  0002749c    00000030     stk.aem4f : listlib.oem4f (.text:list_remove_node)
                  000274cc    00000030     release_pem4f.oem4f (.text:ti_sysbios_BIOS_atExitFunc__I)
                  000274fc    00000030     release_pem4f.oem4f (.text:ti_sysbios_BIOS_startFunc__I)
                  0002752c    00000004     release_pem4f.oem4f (.text:ti_sysbios_BIOS_RtsGateProxy_enter__E)
                  00027530    00000030     sysbios.aem4f : BIOS.obj (.text:ti_sysbios_family_arm_lm4_Timer_stop__E)
                  00027560    00000030                   : BIOS.obj (.text:ti_sysbios_family_arm_m3_TaskSupport_start__E)
                  00027590    00000030     release_pem4f.oem4f (.text:ti_sysbios_gates_GateHwi_Object__create__S)
                  000275c0    00000030     release_pem4f.oem4f (.text:ti_sysbios_gates_GateMutex_Object__create__S)
                  000275f0    00000030     sysbios.aem4f : BIOS.obj (.text:ti_sysbios_gates_GateMutex_enter__E)
                  00027620    00000030     release_pem4f.oem4f (.text:ti_sysbios_gates_GateSwi_Object__create__S)
                  00027650    00000030     release_pem4f.oem4f (.text:ti_sysbios_heaps_HeapMem_Object__create__S)
                  00027680    00000030     release_pem4f.oem4f (.text:ti_sysbios_knl_Clock_construct)
                  000276b0    00000030     release_pem4f.oem4f (.text:ti_sysbios_knl_Semaphore_construct)
                  000276e0    00000030     sysbios.aem4f : BIOS.obj (.text:ti_sysbios_knl_Semaphore_pendTimeout__I)
                  00027710    00000030                   : BIOS.obj (.text:ti_sysbios_knl_Task_restore__E)
                  00027740    00000030                   : BIOS.obj (.text:ti_sysbios_knl_Task_unblockI__E)
                  00027770    0000002e     drivers_msp432e4.aem4f : EMACMSP432E4.oem4f (.text:EMACMSP432E4_emacioctl)
                  0002779e    0000002e     stk.aem4f : sb.oem4f (.text:SBFree)
                  000277cc    0000002e     infrastructure.obj (.text:charCmp)
                  000277fa    0000002e     rtsv7M4_T_le_v4SPD16_eabi.lib : i_tofd_t2.asm.obj (.text)
                  00027828    0000002e     release_pem4f.oem4f (.text:ti_sysbios_rts_MemAlloc_alloc)
                  00027856    0000002c     stk.aem4f : file.oem4f (.text:FdSignalEvent)
                  00027882    00000002     --HOLE-- [fill = 0]
                  00027884    0000002c               : igmp.oem4f (.text:IGMPTestGroup)
                  000278b0    0000002c     os.aem4f : NDK_SemaphoreP_tirtos.oem4f (.text:NDK_SemaphoreP_createBinary)
                  000278dc    0000002c     stk.aem4f : nimu.oem4f (.text:NIMUPacketServiceCheck)
                  00027908    0000002c               : pipe.oem4f (.text:PipeClose)
                  00027934    0000002c     dpl_msp432e4.aem4f : SemaphoreP_tirtos.oem4f (.text:SemaphoreP_createBinary)
                  00027960    0000002c     msp432e4_driverlib.a : sysctl.o (.text:SysCtlPeripheralClockGating)
                  0002798c    0000002c     stk.aem4f : lli.oem4f (.text:_LLIExpListRemove)
                  000279b8    0000002c               : lli.oem4f (.text:_LLITimeoutFlush)
                  000279e4    0000002c               : rtable.oem4f (.text:_RtExpListRemove)
                  00027a10    0000002c     sysbios.aem4f : BIOS.obj (.text:_pthread_cleanupFxn)
                  00027a3c    00000004     release_pem4f.oem4f (.text:ti_sysbios_BIOS_RtsGateProxy_leave__E)
                  00027a40    0000002c     sysbios.aem4f : BIOS.obj (.text:clockFxn$42)
                  00027a6c    0000002c     slnetsock_release.a : slnetutils.oem4f (.text:mergeLists)
                  00027a98    0000002c     udpEcho.obj (.text:select)
                  00027ac4    0000002c     slnetsock_release.a : socket.oem4f (.text:setsockopt)
                  00027af0    0000002c     rtsv7M4_T_le_v4SPD16_eabi.lib : strncmp.c.obj (.text:strncmp)
                  00027b1c    0000002c     release_pem4f.oem4f (.text:ti_sysbios_gates_GateHwi_Handle__label__S)
                  00027b48    0000002c     release_pem4f.oem4f (.text:ti_sysbios_gates_GateMutex_Handle__label__S)
                  00027b74    0000002c     release_pem4f.oem4f (.text:ti_sysbios_gates_GateSwi_Handle__label__S)
                  00027ba0    0000002c     release_pem4f.oem4f (.text:ti_sysbios_heaps_HeapMem_Handle__label__S)
                  00027bcc    0000002c     release_pem4f.oem4f (.text:ti_sysbios_knl_Clock_doTick__I)
                  00027bf8    0000002c     sysbios.aem4f : BIOS.obj (.text:ti_sysbios_knl_Clock_getTimeout__E)
                  00027c24    0000002c     release_pem4f.oem4f (.text:ti_sysbios_knl_Queue_construct)
                  00027c50    0000002c     rtsv7M4_T_le_v4SPD16_eabi.lib : unlink.c.obj (.text:unlink)
                  00027c7c    0000002a     stk.aem4f : pbm.oem4f (.text:PBMQ_deq)
                  00027ca6    0000002a     netctrl_min_ipv4.aem4f : netsrv.oem4f (.text:ServiceCallback)
                  00027cd0    0000002a     slnetsock_release.a : slnetutils.oem4f (.text:SlNetUtil_inetPton)
                  00027cfa    0000002a     stk.aem4f : tcpin.oem4f (.text:TcpEnterTimeWait)
                  00027d24    0000002a     msp432e4_driverlib.a : timer.o (.text:TimerLoadSet)
                  00027d4e    0000002a                          : timer.o (.text:TimerPrescaleSet)
                  00027d78    0000002a     nettool_ipv4.aem4f : config.oem4f (.text:_CfgRelease)
                  00027da2    0000002a     release_pem4f.oem4f (.text:calloc)
                  00027dcc    0000002a     ti_ndk_config.obj (.text:configUdp)
                  00027df6    0000002a     nettool_ipv4.aem4f : dhcpsock.oem4f (.text:dhcpPacketReceive)
                  00027e20    0000002a     sysbios.aem4f : BIOS.obj (.text:sem_init)
                  00027e4a    00000002     --HOLE-- [fill = 0]
                  00027e4c    00000028     stk.aem4f : bind.oem4f (.text:BindFindByNet)
                  00027e74    00000028     msp432e4_driverlib.a : flash.o (.text:FlashUserGet)
                  00027e9c    00000028     stk.aem4f : lli.oem4f (.text:LLIFree)
                  00027ec4    00000028     netctrl_min_ipv4.aem4f : netctrl.oem4f (.text:NC_SystemClose)
                  00027eec    00000028     stk.aem4f : socket.oem4f (.text:NDK_registerHook)
                  00027f14    00000028               : nimu.oem4f (.text:NIMUCreatePacket)
                  00027f3c    00000028               : nimu.oem4f (.text:NIMUPacketService)
                  00027f64    00000028     slnetsock_release.a : slnetif.oem4f (.text:SlNetIf_getIfByID)
                  00027f8c    00000028                         : slnetsock.oem4f (.text:SlNetSock_sdsClr)
                  00027fb4    00000028                         : slnetsock.oem4f (.text:SlNetSock_sdsIsSet)
                  00027fdc    00000028                         : slnetsock.oem4f (.text:SlNetSock_sdsSet)
                  00028004    00000028     stk.aem4f : timer.oem4f (.text:TimerListRemove)
                  0002802c    00000028               : vlan.oem4f (.text:VLANInit)
                  00028054    00000028     rtsv7M4_T_le_v4SPD16_eabi.lib : lseek.c.obj (.text:lseek)
                  0002807c    00000028                                   : memmov.c.obj (.text:memmove)
                  000280a4    00000028     slnetifndk_msp432e4.aem4f : slnetifndk.oem4f (.text:removeSktFromTable)
                  000280cc    00000028     drivers_msp432e4.aem4f : EMACMSP432E4.oem4f (.text:signalLinkChange)
                  000280f4    00000028     sysbios.aem4f : m3_Hwi_asm.obj (.text:ti_sysbios_family_arm_m3_Hwi_excHandlerAsm__I)
                  0002811c    00000004                   : BIOS.obj (.text:ti_sysbios_family_arm_lm4_Timer_masterEnable__I)
                  00028120    00000028                   : BIOS.obj (.text:ti_sysbios_knl_Clock_addI__E)
                  00028148    00000028                   : BIOS.obj (.text:ti_sysbios_knl_Swi_Module_startup__E)
                  00028170    00000028     rtsv7M4_T_le_v4SPD16_eabi.lib : vsprintf.c.obj (.text:vsprintf)
                  00028198    00000028                                   : write.c.obj (.text:write)
                  000281c0    00000026     nettool_ipv4.aem4f : config.oem4f (.text:CfgEntryInfo)
                  000281e6    00000026     sysbios.aem4f : m3_Hwi_asm.obj (.text:ti_sysbios_family_arm_m3_Hwi_pendSV__I)
                  0002820c    00000004     release_pem4f.oem4f (.text:ti_sysbios_family_arm_m3_Hwi_delete)
                  00028210    00000026     sysbios.aem4f : BIOS.obj (.text:xdc_runtime_System_vprintf__E)
                  00028236    00000002     --HOLE-- [fill = 0]
                  00028238    00000024     stk.aem4f : bind.oem4f (.text:BindFindByHost)
                  0002825c    00000024               : bind.oem4f (.text:BindGetIFByDBCast)
                  00028280    00000024     drivers_msp432e4.aem4f : EMACMSP432E4.oem4f (.text:EMACMSP432E4_pkt_service)
                  000282a4    00000024     stk.aem4f : exec.oem4f (.text:ExecTimer)
                  000282c8    00000024     msp432e4_driverlib.a : gpio.o (.text:GPIOPinTypeADC)
                  000282ec    00000024                          : gpio.o (.text:GPIOPinTypeEthernetLED)
                  00028310    00000024                          : gpio.o (.text:GPIOPinTypeSSI)
                  00028334    00000024                          : gpio.o (.text:GPIOPinTypeUART)
                  00028358    00000024     stk.aem4f : nimu.oem4f (.text:NIMUFindByIndex)
                  0002837c    00000024               : rtc.oem4f (.text:RTCAddHook)
                  000283a0    00000024               : rawethsock_pcb.oem4f (.text:RawEthSockPcbFind)
                  000283c4    00000024               : route.oem4f (.text:RtFree)
                  000283e8    00000024               : route.oem4f (.text:RtSetTimeout)
                  0002840c    00000024     slnetsock_release.a : slnetif.oem4f (.text:SlNetIf_getConnectionStatus)
                  00028430    00000024     stk.aem4f : sockpcb.oem4f (.text:SockPcbCleanup)
                  00028454    00000024               : tcpprot.oem4f (.text:TcpPrListen)
                  00028478    00000024               : tcptime.oem4f (.text:TcpTimeoutWait2)
                  0002849c    00000024     msp432e4_driverlib.a : uart.o (.text:UARTCharPutNonBlocking)
                  000284c0    00000024                          : uart.o (.text:UARTEnable)
                  000284e4    00000024     stk.aem4f : vlan.oem4f (.text:VLANFindSourceInterface)
                  00028508    00000024     nettool_ipv4.aem4f : config.oem4f (.text:_CfgEntryProcess)
                  0002852c    00000004     release_pem4f.oem4f (.text:ti_sysbios_family_arm_m3_TaskSupport_Module__startupDone__S)
                  00028530    00000024     sysbios.aem4f : BIOS.obj (.text:pthread_attr_init)
                  00028554    00000024     os.aem4f : task.oem4f (.text:ti_ndk_os_threadStub)
                  00028578    00000024     release_pem4f.oem4f (.text:ti_sysbios_BIOS_registerRTSLock__I)
                  0002859c    00000024     release_pem4f.oem4f (.text:ti_sysbios_BIOS_removeRTSLock__I)
                  000285c0    00000024     release_pem4f.oem4f (.text:ti_sysbios_gates_GateMutex_Object__delete__S)
                  000285e4    00000004     release_pem4f.oem4f (.text:ti_sysbios_heaps_HeapMem_Module_GateProxy_enter__E)
                  000285e8    00000024     sysbios.aem4f : BIOS.obj (.text:ti_sysbios_knl_Clock_Module_startup__E)
                  0002860c    00000024     release_pem4f.oem4f (.text:ti_sysbios_knl_Clock_Object__delete__S)
                  00028630    00000024     sysbios.aem4f : BIOS.obj (.text:ti_sysbios_knl_Clock_start__E)
                  00028654    00000004     release_pem4f.oem4f (.text:ti_sysbios_heaps_HeapMem_Module_GateProxy_leave__E)
                  00028658    00000024     sysbios.aem4f : BIOS.obj (.text:ti_sysbios_knl_Semaphore_Instance_init__E)
                  0002867c    00000024     release_pem4f.oem4f (.text:ti_sysbios_knl_Semaphore_Object__delete__S)
                  000286a0    00000024     sysbios.aem4f : BIOS.obj (.text:ti_sysbios_knl_Task_restoreHwi__E)
                  000286c4    00000004     release_pem4f.oem4f (.text:ti_sysbios_knl_Clock_TimerProxy_getMaxTicks__E)
                  000286c8    00000024     sysbios.aem4f : BIOS.obj (.text:xdc_runtime_Error_policyMin__E)
                  000286ec    00000022     nettool_ipv4.aem4f : config.oem4f (.text:CfgEntryRef)
                  0002870e    00000022     msp432e4_driverlib.a : emac.o (.text:EMACReset)
                  00028730    00000022                          : emac.o (.text:EMACRxEnable)
                  00028752    00000022                          : emac.o (.text:EMACTxEnable)
                  00028774    00000022                          : gpio.o (.text:GPIOIntStatus)
                  00028796    00000002     --HOLE-- [fill = 0]
                  00028798    00000022     sysbios.aem4f : BIOS.obj (.text:ti_sysbios_family_arm_lm4_Timer_write__I)
                  000287ba    00000002     --HOLE-- [fill = 0]
                  000287bc    00000020     msp432e4_driverlib.a : emac.o (.text:EMACFrameFilterSet)
                  000287dc    00000020     drivers_msp432e4.aem4f : EMACMSP432E4.oem4f (.text:EMACMSP432E4_primeRx)
                  000287fc    00000020     msp432e4_driverlib.a : gpio.o (.text:GPIOPinWrite)
                  0002881c    00000020     netctrl_min_ipv4.aem4f : netctrl.oem4f (.text:NC_BootComplete)
                  0002883c    00000020     stk.aem4f : nimu.oem4f (.text:NIMUGetNumOfObject)
                  0002885c    00000020               : rtc.oem4f (.text:RTCRemoveHook)
                  0002887c    00000020     drivers_msp432e4.aem4f : RingBuf.oem4f (.text:RingBuf_peek)
                  0002889c    00000020     stk.aem4f : tcp.oem4f (.text:TcpTimeoutRemove)
                  000288bc    00000020               : vlan.oem4f (.text:VLANFindNode)
                  000288dc    00000020               : fileuser.oem4f (.text:fdsetTestEntry)
                  000288fc    00000020     drivers_msp432e4.aem4f : GPIOMSP432E4.oem4f (.text:getGpioIntIndex)
                  0002891c    00000020     rtsv7M4_T_le_v4SPD16_eabi.lib : memchr.c.obj (.text:memchr)
                  0002893c    00000020                                   : u_tofd_t2.asm.obj (.text)
                  0002895c    00000020     release_pem4f.oem4f (.text:ti_sysbios_BIOS_rtsLock__I)
                  0002897c    00000020     release_pem4f.oem4f (.text:ti_sysbios_family_arm_m3_Hwi_Object__delete__S)
                  0002899c    00000004     release_pem4f.oem4f (.text:ti_sysbios_knl_Clock_delete)
                  000289a0    00000020     sysbios.aem4f : BIOS.obj (.text:ti_sysbios_family_arm_m3_Hwi_clearInterrupt__E)
                  000289c0    00000020     release_pem4f.oem4f (.text:ti_sysbios_gates_GateHwi_Object__delete__S)
                  000289e0    00000020     release_pem4f.oem4f (.text:ti_sysbios_gates_GateSwi_Object__delete__S)
                  00028a00    00000020     release_pem4f.oem4f (.text:ti_sysbios_heaps_HeapMem_Object__delete__S)
                  00028a20    00000020     release_pem4f.oem4f (.text:ti_sysbios_knl_Clock_destruct)
                  00028a40    00000020     sysbios.aem4f : BIOS.obj (.text:ti_sysbios_knl_Idle_run__E)
                  00028a60    00000020     release_pem4f.oem4f (.text:ti_sysbios_knl_Semaphore_destruct)
                  00028a80    00000020     release_pem4f.oem4f (.text:ti_sysbios_knl_Task_Object__delete__S)
                  00028aa0    0000001e     msp432e4_driverlib.a : adc.o (.text:ADCBusy)
                  00028abe    0000001e                          : ssi.o (.text:SSIBusy)
                  00028adc    0000001e                          : ssi.o (.text:SSIIntStatus)
                  00028afa    0000001e                          : timer.o (.text:TimerDisable)
                  00028b18    0000001e                          : timer.o (.text:TimerEnable)
                  00028b36    0000001e                          : uart.o (.text:UARTBusy)
                  00028b54    0000001e                          : uart.o (.text:UARTCharPut)
                  00028b72    0000001e                          : uart.o (.text:UARTCharsAvail)
                  00028b90    0000001e                          : uart.o (.text:UARTIntStatus)
                  00028bae    0000001e     stk.aem4f : fileuser.oem4f (.text:fdError)
                  00028bcc    0000001e               : listlib.oem4f (.text:list_remove)
                  00028bea    0000001e     main_tirtos.obj (.text:main)
                  00028c08    0000001e     rtsv7M4_T_le_v4SPD16_eabi.lib : strcat.c.obj (.text:strcat)
                  00028c26    0000001e     sysbios.aem4f : m3_Hwi_asm_switch.obj (.text:ti_sysbios_family_xxx_Hwi_switchAndRunFunc)
                  00028c44    0000001c     msp432e4_driverlib.a : adc.o (.text:ADCReferenceSet)
                  00028c60    0000001c     stk.aem4f : bind.oem4f (.text:BindFindByIF)
                  00028c7c    0000001c               : exec.oem4f (.text:ExecBroadcast)
                  00028c98    0000001c               : ip.oem4f (.text:IPIsLoopback)
                  00028cb4    0000001c     os.aem4f : ossys.oem4f (.text:NDK_sprintf)
                  00028cd0    0000001c     stk.aem4f : nimu.oem4f (.text:NIMUAddHeader)
                  00028cec    0000001c     msp432e4_driverlib.a : ssi.o (.text:SSIDataGet)
                  00028d08    0000001c     stk.aem4f : sockprot.oem4f (.text:SockPrDetach)
                  00028d24    0000001c     os.aem4f : task.oem4f (.text:TaskDestroy)
                  00028d40    0000001c     msp432e4_driverlib.a : uart.o (.text:UARTCharGetNonBlocking)
                  00028d5c    0000001c                          : uart.o (.text:UARTFlowControlSet)
                  00028d78    0000001c                          : uart.o (.text:UARTTxIntModeSet)
                  00028d94    0000001c     rtsv7M4_T_le_v4SPD16_eabi.lib : assert.c.obj (.text:_abort_msg)
                  00028db0    0000001c     slnetifndk_msp432e4.aem4f : slnetifndk.oem4f (.text:findSlNetSockIf)
                  00028dcc    0000001c     rtsv7M4_T_le_v4SPD16_eabi.lib : memccpy.c.obj (.text:memccpy)
                  00028de8    0000001c     sysbios.aem4f : BIOS.obj (.text:ti_sysbios_family_arm_m3_Hwi_excHandler__I)
                  00028e04    00000004     release_pem4f.oem4f (.text:ti_sysbios_knl_Semaphore_delete)
                  00028e08    0000001c     sysbios.aem4f : BIOS.obj (.text:ti_sysbios_gates_GateMutex_Instance_init__E)
                  00028e24    00000004     release_pem4f.oem4f (.text:ti_sysbios_knl_Task_delete)
                  00028e28    0000001c     sysbios.aem4f : BIOS.obj (.text:ti_sysbios_knl_Clock_Instance_finalize__E)
                  00028e44    0000001c     release_pem4f.oem4f (.text:ti_sysbios_knl_Queue_destruct)
                  00028e60    0000001c     sysbios.aem4f : BIOS.obj (.text:ti_sysbios_knl_Queue_put__E)
                  00028e7c    00000004     release_pem4f.oem4f (.text:xdc_runtime_System_Module_GateProxy_enter__E)
                  00028e80    0000001c     sysbios.aem4f : BIOS.obj (.text:ti_sysbios_knl_Task_enter__I)
                  00028e9c    00000004     release_pem4f.oem4f (.text:xdc_runtime_System_Module_GateProxy_leave__E)
                  00028ea0    0000001c     sysbios.aem4f : BIOS.obj (.text:ti_sysbios_rts_ti_ReentSupport_getReent__F)
                  00028ebc    00000004     --HOLE-- [fill = 0]
                  00028ec0    0000001c                   : BIOS.obj (.text:timerThreadFxn$54)
                  00028edc    0000001c     msp432e4_driverlib.a : udma.o (.text:uDMAChannelDisable)
                  00028ef8    0000001c                          : udma.o (.text:uDMAChannelEnable)
                  00028f14    0000001a                          : adc.o (.text:ADCSequenceDisable)
                  00028f2e    0000001a     stk.aem4f : bind.oem4f (.text:BindGetIP)
                  00028f48    0000001a     msp432e4_driverlib.a : gpio.o (.text:GPIOIntEnable)
                  00028f62    0000001a     stk.aem4f : socket.oem4f (.text:NDK_getSockCtx)
                  00028f7c    0000001a     msp432e4_driverlib.a : ssi.o (.text:SSIDataPut)
                  00028f96    0000001a     stk.aem4f : sockint.oem4f (.text:SockSetOOBMark)
                  00028fb0    0000001a     rtsv7M4_T_le_v4SPD16_eabi.lib : s_copysign.c.obj (.text:copysign)
                  00028fca    0000001a     stk.aem4f : file.oem4f (.text:fdint_getfdt)
                  00028fe4    0000001a     release_pem4f.oem4f (.text:free)
                  00028ffe    0000001a     slnetsock_release.a : socket.oem4f (.text:sendto)
                  00029018    0000001a     release_pem4f.oem4f (.text:xdc_runtime_System_printf__E)
                  00029032    00000018     msp432e4_driverlib.a : gpio.o (.text:GPIOPinRead)
                  0002904a    00000002     --HOLE-- [fill = 0]
                  0002904c    00000018     stk.aem4f : ip.oem4f (.text:IPRtChange)
                  00029064    00000018     drivers_msp432e4.aem4f : PowerMSP432E4.oem4f (.text:Power_idleFunc)
                  0002907c    00000018     stk.aem4f : rawethsock_pcb.oem4f (.text:RawEthSockPcbCleanup)
                  00029094    00000018     nettool_ipv4.aem4f : ipaddr.oem4f (.text:RouteHook)
                  000290ac    00000018     stk.aem4f : tcpin.oem4f (.text:SEQ_GEQ)
                  000290c4    00000018               : tcpout.oem4f (.text:SEQ_GEQ)
                  000290dc    00000018               : tcpin.oem4f (.text:SEQ_GT)
                  000290f4    00000018               : tcpout.oem4f (.text:SEQ_GT)
                  0002910c    00000018               : tcpin.oem4f (.text:SEQ_LEQ)
                  00029124    00000018               : tcpout.oem4f (.text:SEQ_LEQ)
                  0002913c    00000018               : tcpin.oem4f (.text:SEQ_LT)
                  00029154    00000018               : tcpout.oem4f (.text:SEQ_LT)
                  0002916c    00000018     msp432e4_driverlib.a : ssi.o (.text:SSIDMADisable)
                  00029184    00000018                          : ssi.o (.text:SSIDMAEnable)
                  0002919c    00000018                          : ssi.o (.text:SSIIntDisable)
                  000291b4    00000018                          : ssi.o (.text:SSIIntEnable)
                  000291cc    00000018     stk.aem4f : tcp.oem4f (.text:TcpPseudoCs)
                  000291e4    00000018               : tcp.oem4f (.text:TcpTimeoutAdd)
                  000291fc    00000018     msp432e4_driverlib.a : timer.o (.text:TimerIntDisable)
                  00029214    00000018                          : timer.o (.text:TimerIntEnable)
                  0002922c    00000018     drivers_msp432e4.aem4f : TimerMSP432E4.oem4f (.text:TimerMSP432E4_getCount)
                  00029244    00000018     msp432e4_driverlib.a : uart.o (.text:UARTFIFOLevelSet)
                  0002925c    00000018                          : uart.o (.text:UARTIntDisable)
                  00029274    00000018                          : uart.o (.text:UARTIntEnable)
                  0002928c    00000018     drivers_msp432e4.aem4f : UART.oem4f (.text:UART_Params_init)
                  000292a4    00000018     rtsv7M4_T_le_v4SPD16_eabi.lib : args_main.c.obj (.text:_args_main)
                  000292bc    00000018                                   : snprintf.c.obj (.text:_outc)
                  000292d4    00000018                                   : sprintf.c.obj (.text:_outs)
                  000292ec    00000018                                   : vsprintf.c.obj (.text:_outs)
                  00029304    00000018     udpEcho.obj (.text:close)
                  0002931c    00000018     nettool_ipv4.aem4f : dhcpsock.oem4f (.text:dhcpSocketClose)
                  00029334    00000018     stk.aem4f : file.oem4f (.text:fdint_clearevent)
                  0002934c    00000018               : listlib.oem4f (.text:list_add)
                  00029364    00000018     rtsv7M4_T_le_v4SPD16_eabi.lib : ll_mul_t2.asm.obj (.text)
                  0002937c    00000018                                   : strcmp.c.obj (.text:strcmp)
                  00029394    00000018                                   : strrchr.c.obj (.text:strrchr)
                  000293ac    00000018     release_pem4f.oem4f (.text:ti_sysbios_BIOS_rtsUnlock__I)
                  000293c4    00000018     release_pem4f.oem4f (.text:ti_sysbios_family_arm_lm4_Timer_Module__startupDone__F)
                  000293dc    00000018     release_pem4f.oem4f (.text:ti_sysbios_family_arm_m3_Hwi_Module__startupDone__F)
                  000293f4    00000018     sysbios.aem4f : m3_TaskSupport_asm.obj (.text:ti_sysbios_family_arm_m3_TaskSupport_swap__E)
                  0002940c    00000004     --HOLE-- [fill = 0]
                  00029410    00000018                   : BIOS.obj (.text:ti_sysbios_gates_GateMutex_leave__E)
                  00029428    00000018                   : BIOS.obj (.text:ti_sysbios_knl_Task_sleepTimeout__I)
                  00029440    00000018     release_pem4f.oem4f (.text:ti_sysbios_rts_ti_ReentSupport_getTlsAddr__I)
                  00029458    00000018     stk.aem4f : udp.oem4f (.text:udpPseudoCs)
                  00029470    00000018     sysbios.aem4f : BIOS.obj (.text:xdc_runtime_Error_init__E)
                  00029488    00000018                   : BIOS.obj (.text:xdc_runtime_System_exit__E)
                  000294a0    00000016     msp432e4_driverlib.a : ssi.o (.text:SSIDisable)
                  000294b6    00000016                          : ssi.o (.text:SSIEnable)
                  000294cc    00000016                          : uart.o (.text:UARTCharGet)
                  000294e2    00000016     stk.aem4f : file.oem4f (.text:fdint_freefdt)
                  000294f8    00000016     slnetsock_release.a : socket.oem4f (.text:recvfrom)
                  0002950e    00000016                         : socket.oem4f (.text:socket)
                  00029524    00000016     rtsv7M4_T_le_v4SPD16_eabi.lib : strchr.c.obj (.text:strchr)
                  0002953a    00000016     release_pem4f.oem4f (.text:ti_sysbios_BIOS_exitFunc__I)
                  00029550    00000016     ti_ndk_config.obj (.text:ti_sysbios_knl_Task_Params_init)
                  00029566    00000002     --HOLE-- [fill = 0]
                  00029568    00000016     sysbios.aem4f : BIOS.obj (.text:timerFxn$54)
                  0002957e    00000002     --HOLE-- [fill = 0]
                  00029580    00000014     drivers_msp432e4.aem4f : ADCBuf.oem4f (.text:ADCBuf_Params_init)
                  00029594    00000014     stk.aem4f : bind.oem4f (.text:BindIPHost2IF)
                  000295a8    00000014     drivers_msp432e4.aem4f : EMACMSP432E4.oem4f (.text:EMACMSP432E4_emacSend)
                  000295bc    00000014     msp432e4_driverlib.a : emac.o (.text:EMACRxDMADescriptorListSet)
                  000295d0    00000014                          : emac.o (.text:EMACTxDMADescriptorListSet)
                  000295e4    00000014                          : gpio.o (.text:GPIOIntClear)
                  000295f8    00000014     drivers_msp432e4.aem4f : GPIOMSP432E4.oem4f (.text:GPIOMSP432E4_getGpioBaseAddr)
                  0002960c    00000014                            : GPIOMSP432E4.oem4f (.text:GPIOMSP432E4_getPowerResourceId)
                  00029620    00000014     netctrl_min_ipv4.aem4f : netctrl.oem4f (.text:NC_NetStop)
                  00029634    00000014     stk.aem4f : nimu.oem4f (.text:NIMUSendPacket)
                  00029648    00000014     nettool_ipv4.aem4f : ipaddr.oem4f (.text:NtRemoveNetwork)
                  0002965c    00000014     stk.aem4f : rawethsock_pcb.oem4f (.text:RawEthSockPcbInit)
                  00029670    00000014     drivers_msp432e4.aem4f : SPI.oem4f (.text:SPI_Params_init)
                  00029684    00000014     slnetsock_release.a : slnetsock.oem4f (.text:SlNetSock_sdsClrAll)
                  00029698    00000014     stk.aem4f : timer.oem4f (.text:TimerFree)
                  000296ac    00000014     callbacks.obj (.text:adcErrorSWI)
                  000296c0    00000014     callbacks.obj (.text:gpioButtonSw1Callback)
                  000296d4    00000014     callbacks.obj (.text:gpioButtonSw2Callback)
                  000296e8    00000014     sysbios.aem4f : BIOS.obj (.text:pthread_attr_setschedparam)
                  000296fc    00000014     rtsv7M4_T_le_v4SPD16_eabi.lib : strcpy.c.obj (.text:strcpy)
                  00029710    00000014                                   : strlen.c.obj (.text:strlen)
                  00029724    00000014     release_pem4f.oem4f (.text:ti_sysbios_family_arm_m3_Hwi_Object__get__S)
                  00029738    00000014     sysbios.aem4f : BIOS.obj (.text:ti_sysbios_family_arm_m3_Hwi_switchFromBootStack__E)
                  0002974c    00000014     release_pem4f.oem4f (.text:ti_sysbios_heaps_HeapMem_Object__get__S)
                  00029760    00000014     release_pem4f.oem4f (.text:ti_sysbios_knl_Swi_Object__get__S)
                  00029774    00000014     release_pem4f.oem4f (.text:ti_sysbios_knl_Task_Object__first__S)
                  00029788    00000014     release_pem4f.oem4f (.text:ti_sysbios_knl_Task_Object__next__S)
                  0002979c    00000014     callbacks.obj (.text:timer1Callback)
                  000297b0    00000014     msp432e4_driverlib.a : udma.o (.text:uDMAControlBaseSet)
                  000297c4    00000012                          : adc.o (.text:ADCIntClearEx)
                  000297d6    00000012                          : adc.o (.text:ADCPhaseDelaySet)
                  000297e8    00000012                          : emac.o (.text:EMACTxDMAPollDemand)
                  000297fa    00000012     os.aem4f : NDK_SemaphoreP_tirtos.oem4f (.text:NDK_SemaphoreP_pend)
                  0002980c    00000012     drivers_msp432e4.aem4f : RingBuf.oem4f (.text:RingBuf_construct)
                  0002981e    00000012     msp432e4_driverlib.a : ssi.o (.text:SSIIntClear)
                  00029830    00000012     dpl_msp432e4.aem4f : SemaphoreP_tirtos.oem4f (.text:SemaphoreP_pend)
                  00029842    00000012     stk.aem4f : sockprot.oem4f (.text:SockPrAttach)
                  00029854    00000012               : sockint.oem4f (.text:SockSetOOBData)
                  00029866    00000012     msp432e4_driverlib.a : timer.o (.text:TimerIntClear)
                  00029878    00000012                          : uart.o (.text:UARTIntClear)
                  0002988a    00000012                          : uart.o (.text:UARTRxErrorGet)
                  0002989c    00000012     rtsv7M4_T_le_v4SPD16_eabi.lib : sscanf.c.obj (.text:_inpchar)
                  000298ae    00000002     --HOLE-- [fill = 0]
                  000298b0    00000012     sysbios.aem4f : BIOS.obj (.text:_pthread_runStub$44)
                  000298c2    00000012     nettool_ipv4.aem4f : inetaddr.oem4f (.text:inet_addr)
                  000298d4    00000004     --HOLE-- [fill = 0]
                  000298d8    00000012     sysbios.aem4f : BIOS.obj (.text:ti_sysbios_hal_Hwi_Module_startup__E)
                  000298ea    00000006     msp432e4_driverlib.a : sysctl.o (.text:SysCtlDelay)
                  000298f0    00000012     sysbios.aem4f : BIOS.obj (.text:ti_sysbios_knl_Semaphore_reset__E)
                  00029902    00000012     rtsv7M4_T_le_v4SPD16_eabi.lib : wcslen.c.obj (.text:wcslen)
                  00029914    00000012     release_pem4f.oem4f (.text:xdc_runtime_Startup_exec__I)
                  00029926    00000002     --HOLE-- [fill = 0]
                  00029928    00000010     release_pem4f.oem4f (.text:.bootCodeSection:ti_sysbios_family_arm_msp432e4_init_Boot_init__I)
                  00029938    00000010     stk.aem4f : bind.oem4f (.text:BindIF2IPHost)
                  00029948    00000010               : bind.oem4f (.text:BindIFNet2IPHost)
                  00029958    00000010               : exec.oem4f (.text:ExecHRef)
                  00029968    00000010     dpl_msp432e4.aem4f : HwiP_tirtos.oem4f (.text:HwiP_Params_init)
                  00029978    00000010     netctrl_min_ipv4.aem4f : netctrl.oem4f (.text:NC_IPUpdate)
                  00029988    00000010     stk.aem4f : nimu.oem4f (.text:NIMUGetRsvdSizeInfo)
                  00029998    00000010     dpl_msp432e4.aem4f : PowerMSP432E4_tirtos.oem4f (.text:PowerMSP432E4_sleepPolicy)
                  000299a8    00000010     os.aem4f : semaphore.oem4f (.text:SemPend)
                  000299b8    00000010     slnetsock_release.a : slnetutils.oem4f (.text:SlNetUtil_freeAddrInfo)
                  000299c8    00000010     drivers_msp432e4.aem4f : Timer.oem4f (.text:Timer_Params_init)
                  000299d8    00000010     msp432e4_driverlib.a : uart.o (.text:UARTRxErrorClear)
                  000299e8    00000010     slnetsock_release.a : socket.oem4f (.text:bind)
                  000299f8    00000010     ti_drivers_config.obj (.text:dmaErrorFxn)
                  00029a08    00000010     rtsv7M4_T_le_v4SPD16_eabi.lib : isdigit.c.obj (.text:isdigit)
                  00029a18    00000010                                   : isprint.c.obj (.text:isprint)
                  00029a28    00000010                                   : isspace.c.obj (.text:isspace)
                  00029a38    00000010     drivers_msp432e4.aem4f : UARTMSP432E4.oem4f (.text:readBlockingTimeout)
                  00029a48    00000010     sysbios.aem4f : BIOS.obj (.text:ti_sysbios_BIOS_getCpuFreq__E)
                  00029a58    00000010                   : BIOS.obj (.text:ti_sysbios_BIOS_setThreadType__E)
                  00029a68    00000010                   : BIOS.obj (.text:ti_sysbios_BIOS_start__E)
                  00029a78    00000010                   : m3_TaskSupport_asm.obj (.text:ti_sysbios_family_arm_m3_TaskSupport_glue)
                  00029a88    00000010                   : BIOS.obj (.text:ti_sysbios_gates_GateMutex_Instance_finalize__E)
                  00029a98    00000010                   : BIOS.obj (.text:ti_sysbios_gates_GateSwi_enter__E)
                  00029aa8    00000010     release_pem4f.oem4f (.text:ti_sysbios_knl_Mailbox_Object__get__S)
                  00029ab8    00000010     sysbios.aem4f : BIOS.obj (.text:ti_sysbios_knl_Semaphore_Instance_finalize__E)
                  00029ac8    00000010                   : BIOS.obj (.text:ti_sysbios_knl_Swi_disable__E)
                  00029ad8    00000010     release_pem4f.oem4f (.text:ti_sysbios_knl_Task_Object__get__S)
                  00029ae8    00000010     sysbios.aem4f : BIOS.obj (.text:ti_sysbios_knl_Task_disable__E)
                  00029af8    00000010     rtsv7M4_T_le_v4SPD16_eabi.lib : tolower.c.obj (.text:tolower)
                  00029b08    00000010     sysbios.aem4f : BIOS.obj (.text:xdc_runtime_Memory_free__E)
                  00029b18    00000010                   : BIOS.obj (.text:xdc_runtime_SysCallback_abort__E)
                  00029b28    00000010                   : BIOS.obj (.text:xdc_runtime_SysCallback_exit__E)
                  00029b38    00000010                   : BIOS.obj (.text:xdc_runtime_SysCallback_putch__E)
                  00029b48    00000010                   : BIOS.obj (.text:xdc_runtime_SysCallback_ready__E)
                  00029b58    0000000e     stk.aem4f : exec.oem4f (.text:ExecLowResource)
                  00029b66    0000000e     drivers_msp432e4.aem4f : RingBuf.oem4f (.text:RingBuf_isFull)
                  00029b74    0000000e     rtsv7M4_T_le_v4SPD16_eabi.lib : copy_decompress_none.c.obj (.text:decompress:none:__TI_decompress_none)
                  00029b82    00000006     stk.aem4f : tcpprot.oem4f (.text:TcpPrRecv)
                  00029b88    0000000e     sysbios.aem4f : BIOS.obj (.text:pthread_attr_setdetachstate)
                  00029b96    00000002     --HOLE-- [fill = 0]
                  00029b98    0000000e                   : BIOS.obj (.text:sem_wait)
                  00029ba6    00000002     --HOLE-- [fill = 0]
                  00029ba8    0000000e                   : BIOS.obj (.text:ti_sysbios_knl_Idle_loop__E)
                  00029bb6    00000002     --HOLE-- [fill = 0]
                  00029bb8    0000000e                   : BIOS.obj (.text:ti_sysbios_knl_Queue_empty__E)
                  00029bc6    00000002     --HOLE-- [fill = 0]
                  00029bc8    0000000c     stk.aem4f : bind.oem4f (.text:BindGetFirst)
                  00029bd4    0000000c     nettool_ipv4.aem4f : config.oem4f (.text:CfgSetDefault)
                  00029be0    0000000c     dpl_msp432e4.aem4f : ClockP_tirtos.oem4f (.text:ClockP_delete)
                  00029bec    0000000c                        : HwiP_tirtos.oem4f (.text:HwiP_delete)
                  00029bf8    0000000c     os.aem4f : NDK_SemaphoreP_tirtos.oem4f (.text:NDK_SemaphoreP_create)
                  00029c04    0000000c              : NDK_SemaphoreP_tirtos.oem4f (.text:NDK_SemaphoreP_delete)
                  00029c10    0000000c              : task.oem4f (.text:NDK_hookInit)
                  00029c1c    0000000c     stk.aem4f : nimu.oem4f (.text:NIMUSetRsvdSizeInfo)
                  00029c28    0000000c     os.aem4f : os_ll.oem4f (.text:NotifyLowResource)
                  00029c34    0000000c     stk.aem4f : pbm.oem4f (.text:PBM_close)
                  00029c40    0000000c     dpl_msp432e4.aem4f : SemaphoreP_tirtos.oem4f (.text:SemaphoreP_delete)
                  00029c4c    0000000c     os.aem4f : task.oem4f (.text:_TaskInit)
                  00029c58    0000000c              : task.oem4f (.text:_TaskShutdown)
                  00029c64    0000000c     hal_timer.aem4f : lltimer.oem4f (.text:_llTimerShutdown)
                  00029c70    0000000c     rtsv7M4_T_le_v4SPD16_eabi.lib : _lock.c.obj (.text:_register_lock)
                  00029c7c    0000000c                                   : _lock.c.obj (.text:_register_unlock)
                  00029c88    0000000c                                   : copy_zero_init.c.obj (.text:decompress:ZI:__TI_zero_init)
                  00029c94    0000000c     udpEcho.obj (.text:freeaddrinfo)
                  00029ca0    0000000c     udpEcho.obj (.text:gai_strerror)
                  00029cac    0000000c     hal_timer.aem4f : lltimer.oem4f (.text:llTimerGetStartTime)
                  00029cb8    0000000c     sysbios.aem4f : BIOS.obj (.text:ti_sysbios_BIOS_getThreadType__E)
                  00029cc4    00000004     --HOLE-- [fill = 0]
                  00029cc8    0000000c                   : BIOS.obj (.text:ti_sysbios_family_arm_lm4_Timer_getMaxTicks__E)
                  00029cd4    0000000c     release_pem4f.oem4f (.text:ti_sysbios_family_arm_m3_Hwi_Params__init__S)
                  00029ce0    0000000c     sysbios.aem4f : BIOS.obj (.text:ti_sysbios_family_arm_m3_Hwi_disableFxn__E)
                  00029cec    00000004     --HOLE-- [fill = 0]
                  00029cf0    0000000c                   : BIOS.obj (.text:ti_sysbios_family_arm_m3_TaskSupport_getStackAlignment__E)
                  00029cfc    00000004     --HOLE-- [fill = 0]
                  00029d00    0000000c                   : BIOS.obj (.text:ti_sysbios_gates_GateHwi_enter__E)
                  00029d0c    00000004     --HOLE-- [fill = 0]
                  00029d10    0000000c                   : BIOS.obj (.text:ti_sysbios_gates_GateSwi_query__E)
                  00029d1c    0000000c     release_pem4f.oem4f (.text:ti_sysbios_knl_Clock_Params__init__S)
                  00029d28    0000000c     release_pem4f.oem4f (.text:ti_sysbios_knl_Queue_Object__get__S)
                  00029d34    0000000c     release_pem4f.oem4f (.text:ti_sysbios_knl_Semaphore_Params__init__S)
                  00029d40    0000000c     release_pem4f.oem4f (.text:ti_sysbios_knl_Task_Params__init__S)
                  00029d4c    00000004     --HOLE-- [fill = 0]
                  00029d50    0000000c     sysbios.aem4f : BIOS.obj (.text:ti_sysbios_knl_Task_self__E)
                  00029d5c    00000004     --HOLE-- [fill = 0]
                  00029d60    0000000c                   : BIOS.obj (.text:ti_sysbios_rts_ti_ReentSupport_taskRegHook__I)
                  00029d6c    0000000c     msp432e4_driverlib.a : udma.o (.text:uDMAControlBaseGet)
                  00029d78    0000000c                          : udma.o (.text:uDMAEnable)
                  00029d84    0000000c                          : udma.o (.text:uDMAErrorStatusClear)
                  00029d90    0000000c                          : udma.o (.text:uDMAErrorStatusGet)
                  00029d9c    00000004     --HOLE-- [fill = 0]
                  00029da0    0000000c     sysbios.aem4f : BIOS.obj (.text:xdc_runtime_Startup_rtsDone__E)
                  00029dac    0000000a     drivers_msp432e4.aem4f : ADCBuf.oem4f (.text:ADCBuf_convert)
                  00029db6    0000000a                            : ADCBuf.oem4f (.text:ADCBuf_convertCancel)
                  00029dc0    0000000a     dpl_msp432e4.aem4f : ClockP_tirtos.oem4f (.text:ClockP_Params_init)
                  00029dca    0000000a     drivers_msp432e4.aem4f : SPI.oem4f (.text:SPI_transfer)
                  00029dd4    0000000a                            : Timer.oem4f (.text:Timer_setPeriod)
                  00029dde    0000000a                            : Timer.oem4f (.text:Timer_start)
                  00029de8    0000000a                            : UART.oem4f (.text:UART_read)
                  00029df2    0000000a                            : UART.oem4f (.text:UART_write)
                  00029dfc    0000000a     rtsv7M4_T_le_v4SPD16_eabi.lib : sprintf.c.obj (.text:_outc)
                  00029e06    0000000a                                   : vsprintf.c.obj (.text:_outc)
                  00029e10    0000000a     stk.aem4f : file.oem4f (.text:fdint_signalevent)
                  00029e1a    0000000a               : file.oem4f (.text:fdint_signaltimeout)
                  00029e24    00000004     --HOLE-- [fill = 0]
                  00029e28    0000000a     sysbios.aem4f : BIOS.obj (.text:sem_post)
                  00029e32    0000000a     release_pem4f.oem4f (.text:xdc_runtime_IHeap_alloc)
                  00029e3c    0000000a     release_pem4f.oem4f (.text:xdc_runtime_IHeap_free)
                  00029e46    00000008     stk.aem4f : node.oem4f (.text:NodeFree)
                  00029e4e    00000008     dpl_msp432e4.aem4f : SemaphoreP_tirtos.oem4f (.text:SemaphoreP_Params_init)
                  00029e56    00000008     os.aem4f : task.oem4f (.text:TaskBlock)
                  00029e5e    00000008     rtsv7M4_T_le_v4SPD16_eabi.lib : sscanf.c.obj (.text:_uninpchar)
                  00029e66    00000008     drivers_msp432e4.aem4f : ADCBufMSP432E4.oem4f (.text:blockingConvertCallback)
                  00029e6e    00000008                            : SPIMSP432E4DMA.oem4f (.text:blockingTransferCallback)
                  00029e76    00000002     --HOLE-- [fill = 0]
                  00029e78    00000008     sysbios.aem4f : BIOS.obj (.text:pthread_attr_setstacksize)
                  00029e80    00000008     drivers_msp432e4.aem4f : UARTMSP432E4.oem4f (.text:readSemCallback)
                  00029e88    00000008     sysbios.aem4f : BIOS.obj (.text:ti_sysbios_family_arm_lm4_Timer_masterDisable__I)
                  00029e90    00000008                   : BIOS.obj (.text:ti_sysbios_family_arm_m3_Hwi_doSwiRestore__I)
                  00029e98    00000008                   : BIOS.obj (.text:ti_sysbios_family_arm_m3_Hwi_startup__E)
                  00029ea0    00000008                   : BIOS.obj (.text:ti_sysbios_knl_Task_getHookContext__E)
                  00029ea8    00000008                   : BIOS.obj (.text:ti_sysbios_knl_Task_setHookContext__E)
                  00029eb0    00000008     drivers_msp432e4.aem4f : UARTMSP432E4.oem4f (.text:writeSemCallback)
                  00029eb8    00000006                            : TimerMSP432E4.oem4f (.text:TimerMSP432E4_control)
                  00029ebe    00000006                            : UDMAMSP432E4.oem4f (.text:UDMAMSP432E4_close)
                  00029ec4    00000006     stk.aem4f : file.oem4f (.text:fdint_setinvalid)
                  00029eca    00000006     --HOLE-- [fill = 0]
                  00029ed0    00000006     sysbios.aem4f : BIOS.obj (.text:ti_sysbios_family_arm_m3_Hwi_doTaskRestore__I)
                  00029ed6    00000002     --HOLE-- [fill = 0]
                  00029ed8    00000006                   : BIOS.obj (.text:ti_sysbios_family_arm_m3_Hwi_restoreFxn__E)
                  00029ede    00000002     --HOLE-- [fill = 0]
                  00029ee0    00000006                   : BIOS.obj (.text:ti_sysbios_gates_GateHwi_leave__E)
                  00029ee6    00000002     --HOLE-- [fill = 0]
                  00029ee8    00000006                   : BIOS.obj (.text:ti_sysbios_gates_GateSwi_leave__E)
                  00029eee    00000002     --HOLE-- [fill = 0]
                  00029ef0    00000006                   : BIOS.obj (.text:ti_sysbios_heaps_HeapMem_isBlocking__E)
                  00029ef6    00000002     --HOLE-- [fill = 0]
                  00029ef8    00000006                   : BIOS.obj (.text:ti_sysbios_knl_Clock_stop__E)
                  00029efe    00000002     --HOLE-- [fill = 0]
                  00029f00    00000006                   : BIOS.obj (.text:ti_sysbios_knl_Queue_Instance_init__E)
                  00029f06    00000002     --HOLE-- [fill = 0]
                  00029f08    00000006                   : BIOS.obj (.text:ti_sysbios_knl_Swi_startup__E)
                  00029f0e    00000002     --HOLE-- [fill = 0]
                  00029f10    00000006                   : BIOS.obj (.text:xdc_runtime_System_Module_startup__E)
                  00029f16    00000002     --HOLE-- [fill = 0]
                  00029f18    00000004                   : BIOS.obj (.text:__aeabi_errno_addr)
                  00029f1c    00000004     --HOLE-- [fill = 0]
                  00029f20    00000004                   : BIOS.obj (.text:ti_sysbios_gates_GateHwi_query__E)
                  00029f24    00000004     --HOLE-- [fill = 0]
                  00029f28    00000004                   : BIOS.obj (.text:ti_sysbios_gates_GateMutex_query__E)
                  00029f2c    00000004     --HOLE-- [fill = 0]
                  00029f30    00000004                   : BIOS.obj (.text:ti_sysbios_knl_Clock_setTimeout__E)
                  00029f34    00000004     --HOLE-- [fill = 0]
                  00029f38    00000004                   : BIOS.obj (.text:ti_sysbios_knl_Semaphore_getCount__E)
                  00029f3c    00000004     --HOLE-- [fill = 0]
                  00029f40    00000004                   : BIOS.obj (.text:ti_sysbios_knl_Task_startup__E)
                  00029f44    00000004     --HOLE-- [fill = 0]
                  00029f48    00000004                   : BIOS.obj (.text:xdc_runtime_SysCallback_defaultReady)
                  00029f4c    00000004     --HOLE-- [fill = 0]
                  00029f50    00000004                   : BIOS.obj (.text:xdc_runtime_System_printf_va__F)
                  00029f54    00000004     --HOLE-- [fill = 0]
                  00029f58    00000002                   : BIOS.obj (.text:ti_sysbios_BIOS_linkedWithIncorrectBootLibrary__E)
                  00029f5a    00000006     --HOLE-- [fill = 0]
                  00029f60    00000002                   : BIOS.obj (.text:ti_sysbios_gates_GateHwi_Instance_init__E)
                  00029f62    00000006     --HOLE-- [fill = 0]
                  00029f68    00000002                   : BIOS.obj (.text:ti_sysbios_gates_GateSwi_Instance_init__E)
                  00029f6a    00000006     --HOLE-- [fill = 0]
                  00029f70    00000002                   : BIOS.obj (.text:ti_sysbios_knl_Clock_logTick__E)
                  00029f72    00000006     --HOLE-- [fill = 0]
                  00029f78    00000002                   : BIOS.obj (.text:xdc_runtime_SysCallback_defaultAbort)
                  00029f7a    00000006     --HOLE-- [fill = 0]
                  00029f80    00000002                   : BIOS.obj (.text:xdc_runtime_SysCallback_defaultExit)
                  00029f82    00000006     --HOLE-- [fill = 0]
                  00029f88    00000002                   : BIOS.obj (.text:xdc_runtime_SysCallback_defaultPutch)
                  00029f8a    00000006     --HOLE-- [fill = 0]
                  00029f90    00000002                   : BIOS.obj (.text:xdc_runtime_System_abortSpin__E)
                  00029f92    00000006     --HOLE-- [fill = 0]
                  00029f98    00000002                   : BIOS.obj (.text:xdc_runtime_System_exitSpin__E)

.const     0    00029fa0    0000119e     
                  00029fa0    00000210     sysbios.aem4f : BIOS.obj (.const:$O2$$)
                  0002a1b0    00000202     sinlut.obj (.const:sinLUT)
                  0002a3b2    00000002     release_pem4f.oem4f (.const:ti_sysbios_family_arm_m3_Hwi_Module__id__C)
                  0002a3b4    00000186     slnetsock_release.a : slnetutils.oem4f (.const:.string)
                  0002a53a    00000101     rtsv7M4_T_le_v4SPD16_eabi.lib : ctype.c.obj (.const:.string:_ctypes_)
                  0002a63b    00000005     drivers_msp432e4.aem4f : SPIMSP432E4DMA.oem4f (.const:.string:frameFormat)
                  0002a640    000000c8     rtsv7M4_T_le_v4SPD16_eabi.lib : strtod.c.obj (.const:$O1$$)
                  0002a708    00000074     udpEchoHooks.obj (.const:.string)
                  0002a77c    00000070     release_pem4f.oem4f (.const)
                  0002a7ec    00000058     ti_drivers_config.obj (.const:uartMSP432E4HWAttrs)
                  0002a844    00000054     stk.aem4f : sockprot.oem4f (.const:Code2Err)
                  0002a898    00000048     msp432e4_driverlib.a : gpio.o (.const:g_pui32GPIOBaseAddrs)
                  0002a8e0    00000048     drivers_msp432e4.aem4f : GPIOMSP432E4.oem4f (.const:gpioBaseAddresses)
                  0002a928    00000048                            : GPIOMSP432E4.oem4f (.const:powerMgrIds)
                  0002a970    0000003e     stk.aem4f : rtc.oem4f (.const:.string)
                  0002a9ae    00000002     release_pem4f.oem4f (.const:ti_sysbios_heaps_HeapMem_Module__id__C)
                  0002a9b0    0000003c     release_pem4f.oem4f (.const:ti_sysbios_knl_Task_Object__PARAMS__C)
                  0002a9ec    00000030     ti_drivers_config.obj (.const:spiMSP432E4DMAHWAttrs)
                  0002aa1c    00000030     release_pem4f.oem4f (.const:ti_sysbios_family_arm_m3_Hwi_Object__PARAMS__C)
                  0002aa4c    00000030     release_pem4f.oem4f (.const:ti_sysbios_knl_Task_hooks__A)
                  0002aa7c    00000028     drivers_msp432e4.aem4f : UARTMSP432E4.oem4f (.const:UARTMSP432E4_fxnTable)
                  0002aaa4    00000028     release_pem4f.oem4f (.const:ti_sysbios_heaps_HeapMem_Module__FXNS__C)
                  0002aacc    00000024     drivers_msp432e4.aem4f : ADCBufMSP432E4.oem4f (.const:ADCBufMSP432E4_fxnTable)
                  0002aaf0    00000024                            : UART.oem4f (.const:UART_defaultParams)
                  0002ab14    00000024     release_pem4f.oem4f (.const:ti_sysbios_gates_GateHwi_Module__FXNS__C)
                  0002ab38    00000024     release_pem4f.oem4f (.const:ti_sysbios_gates_GateMutex_Module__FXNS__C)
                  0002ab5c    00000024     release_pem4f.oem4f (.const:ti_sysbios_gates_GateSwi_Module__FXNS__C)
                  0002ab80    00000024     release_pem4f.oem4f (.const:ti_sysbios_heaps_HeapMem_Object__PARAMS__C)
                  0002aba4    00000024     release_pem4f.oem4f (.const:ti_sysbios_knl_Clock_Object__PARAMS__C)
                  0002abc8    00000024     release_pem4f.oem4f (.const:ti_sysbios_knl_Semaphore_Object__PARAMS__C)
                  0002abec    00000020     drivers_msp432e4.aem4f : GPIOMSP432E4.oem4f (.const:.string:gpioInterruptVectors)
                  0002ac0c    00000020                            : SPI.oem4f (.const:SPI_defaultParams)
                  0002ac2c    00000020                            : TimerMSP432E4.oem4f (.const:TimerMSP432E4_fxnTable)
                  0002ac4c    00000020     ti_drivers_config.obj (.const:adcbufMSP432E4HWAttrs)
                  0002ac6c    00000020     slnetsock_release.a : slnetutils.oem4f (.const:defHints$1)
                  0002ac8c    00000020     drivers_msp432e4.aem4f : UARTMSP432E4.oem4f (.const:staticFxnTable)
                  0002acac    00000020     release_pem4f.oem4f (.const:ti_sysbios_family_arm_m3_Hwi_Object__DESC__C)
                  0002accc    00000020     release_pem4f.oem4f (.const:ti_sysbios_gates_GateHwi_Object__DESC__C)
                  0002acec    00000020     release_pem4f.oem4f (.const:ti_sysbios_gates_GateMutex_Object__DESC__C)
                  0002ad0c    00000020     release_pem4f.oem4f (.const:ti_sysbios_gates_GateSwi_Object__DESC__C)
                  0002ad2c    00000020     release_pem4f.oem4f (.const:ti_sysbios_heaps_HeapMem_Object__DESC__C)
                  0002ad4c    00000020     release_pem4f.oem4f (.const:ti_sysbios_knl_Clock_Object__DESC__C)
                  0002ad6c    00000020     release_pem4f.oem4f (.const:ti_sysbios_knl_Queue_Object__DESC__C)
                  0002ad8c    00000020     release_pem4f.oem4f (.const:ti_sysbios_knl_Semaphore_Object__DESC__C)
                  0002adac    00000020     release_pem4f.oem4f (.const:ti_sysbios_knl_Task_Object__DESC__C)
                  0002adcc    00000020     ti_drivers_config.obj (.const:timerMSP432E4HWAttrs)
                  0002adec    00000020     drivers_msp432e4.aem4f : ADCBufMSP432E4.oem4f (.const:udmaChannels)
                  0002ae0c    00000020     release_pem4f.oem4f (.const:xdc_runtime_Startup_sfxnTab__A)
                  0002ae2c    00000018     drivers_msp432e4.aem4f : ADCBuf.oem4f (.const:ADCBuf_defaultParams)
                  0002ae44    00000018     ti_drivers_config.obj (.const:EMACMSP432E4_hwAttrs)
                  0002ae5c    00000018     drivers_msp432e4.aem4f : SPIMSP432E4DMA.oem4f (.const:SPIMSP432E4DMA_fxnTable)
                  0002ae74    00000018     ti_drivers_config.obj (.const:Timer_config)
                  0002ae8c    00000018     ti_drivers_config.obj (.const:UART_config)
                  0002aea4    00000018     msp432e4_driverlib.a : emac.o (.const:g_pi16MIIClockDiv)
                  0002aebc    00000018     ti_ndk_config.obj (.const)
                  0002aed4    00000018     release_pem4f.oem4f (.const:ti_sysbios_gates_GateHwi_Object__PARAMS__C)
                  0002aeec    00000018     release_pem4f.oem4f (.const:ti_sysbios_gates_GateMutex_Object__PARAMS__C)
                  0002af04    00000018     release_pem4f.oem4f (.const:ti_sysbios_gates_GateSwi_Object__PARAMS__C)
                  0002af1c    00000018     release_pem4f.oem4f (.const:ti_sysbios_knl_Queue_Object__PARAMS__C)
                  0002af34    00000014     ti_drivers_config.obj (.const:GPIOMSP432E4_config)
                  0002af48    00000014     drivers_msp432e4.aem4f : UARTMSP432E4.oem4f (.const:parityType)
                  0002af5c    00000013     ti_drivers_config.obj (.const)
                  0002af6f    00000001     release_pem4f.oem4f (.const:xdc_runtime_Error_policy__C)
                  0002af70    00000010     rtsv7M4_T_le_v4SPD16_eabi.lib : _scanfi.c.obj (.const:$O1$$)
                  0002af80    00000010     drivers_msp432e4.aem4f : UARTMSP432E4.oem4f (.const:dataLength)
                  0002af90    00000010     release_pem4f.oem4f (.const:xdc_runtime_Startup_firstFxns__A)
                  0002afa0    00000010     release_pem4f.oem4f (.const:xdc_runtime_Startup_sfxnRts__A)
                  0002afb0    0000000c     ti_drivers_config.obj (.const:ADCBuf_config)
                  0002afbc    0000000c     ti_drivers_config.obj (.const:SPI_config)
                  0002afc8    0000000c     drivers_msp432e4.aem4f : Timer.oem4f (.const:defaultParams)
                  0002afd4    0000000c     release_pem4f.oem4f (.const:ti_sysbios_knl_Idle_funcList__A)
                  0002afe0    0000000c     ti_drivers_config.obj (.const:udmaMSP432E4HWAttrs)
                  0002afec    00000008     ti_drivers_config.obj (.const:PowerMSP432E4_config)
                  0002aff4    00000008     ti_drivers_config.obj (.const:UDMAMSP432E4_config)
                  0002affc    00000008     drivers_msp432e4.aem4f : ADCBufMSP432E4.oem4f (.const:adcInterrupts)
                  0002b004    00000008                            : SPIMSP432E4DMA.oem4f (.const:dmaNullConfig)
                  0002b00c    00000008                            : SPIMSP432E4DMA.oem4f (.const:dmaRxConfig)
                  0002b014    00000008                            : SPIMSP432E4DMA.oem4f (.const:dmaTxConfig)
                  0002b01c    00000008                            : UARTMSP432E4.oem4f (.const:stopBits)
                  0002b024    00000008     release_pem4f.oem4f (.const:ti_sysbios_knl_Idle_funcList__C)
                  0002b02c    00000008     release_pem4f.oem4f (.const:ti_sysbios_knl_Task_hooks__C)
                  0002b034    00000008     release_pem4f.oem4f (.const:xdc_runtime_Startup_firstFxns__C)
                  0002b03c    00000008     release_pem4f.oem4f (.const:xdc_runtime_Startup_lastFxns__C)
                  0002b044    00000007     drivers_msp432e4.aem4f : GPIOMSP432E4.oem4f (.const:.string:outPinStrengths)
                  0002b04b    00000006                            : GPIOMSP432E4.oem4f (.const:.string:interruptType)
                  0002b051    00000003                            : GPIOMSP432E4.oem4f (.const:.string:inPinTypes)
                  0002b054    00000006     ti_ndk_config.obj (.const:.string)
                  0002b05a    00000004     drivers_msp432e4.aem4f : ADCBufMSP432E4.oem4f (.const:.string:adcMaxSamples)
                  0002b05e    00000004                            : GPIOMSP432E4.oem4f (.const:.string:outPinTypes)
                  0002b062    00000002     release_pem4f.oem4f (.const:ti_sysbios_knl_Task_Module__id__C)
                  0002b064    00000004     release_pem4f.oem4f (.const:ti_sysbios_family_arm_lm4_Timer_enableFunc__C)
                  0002b068    00000004     release_pem4f.oem4f (.const:ti_sysbios_family_arm_lm4_Timer_numTimerDevices__C)
                  0002b06c    00000004     release_pem4f.oem4f (.const:ti_sysbios_family_arm_lm4_Timer_startupNeeded__C)
                  0002b070    00000004     release_pem4f.oem4f (.const:ti_sysbios_family_arm_m3_Hwi_E_alreadyDefined__C)
                  0002b074    00000004     release_pem4f.oem4f (.const:ti_sysbios_family_arm_m3_Hwi_E_badIntNum__C)
                  0002b078    00000004     release_pem4f.oem4f (.const:ti_sysbios_family_arm_m3_Hwi_NUM_INTERRUPTS__C)
                  0002b07c    00000004     release_pem4f.oem4f (.const:ti_sysbios_family_arm_m3_Hwi_Object__count__C)
                  0002b080    00000004     release_pem4f.oem4f (.const:ti_sysbios_family_arm_m3_Hwi_ccr__C)
                  0002b084    00000004     release_pem4f.oem4f (.const:ti_sysbios_family_arm_m3_Hwi_excHandlerFunc__C)
                  0002b088    00000004     release_pem4f.oem4f (.const:ti_sysbios_family_arm_m3_Hwi_nullIsrFunc__C)
                  0002b08c    00000004     release_pem4f.oem4f (.const:ti_sysbios_family_arm_m3_Hwi_priGroup__C)
                  0002b090    00000004     release_pem4f.oem4f (.const:ti_sysbios_family_arm_m3_TaskSupport_stackAlignment__C)
                  0002b094    00000004     release_pem4f.oem4f (.const:ti_sysbios_gates_GateMutex_Instance_State_sem__O)
                  0002b098    00000004     release_pem4f.oem4f (.const:ti_sysbios_heaps_HeapMem_E_memory__C)
                  0002b09c    00000004     release_pem4f.oem4f (.const:ti_sysbios_heaps_HeapMem_Module__gateObj__C)
                  0002b0a0    00000004     release_pem4f.oem4f (.const:ti_sysbios_heaps_HeapMem_Object__count__C)
                  0002b0a4    00000004     release_pem4f.oem4f (.const:ti_sysbios_heaps_HeapMem_primaryHeapBaseAddr__C)
                  0002b0a8    00000004     release_pem4f.oem4f (.const:ti_sysbios_heaps_HeapMem_primaryHeapEndAddr__C)
                  0002b0ac    00000004     release_pem4f.oem4f (.const:ti_sysbios_heaps_HeapMem_reqAlign__C)
                  0002b0b0    00000004     release_pem4f.oem4f (.const:ti_sysbios_knl_Clock_Module_State_clockQ__O)
                  0002b0b4    00000004     release_pem4f.oem4f (.const:ti_sysbios_knl_Clock_tickPeriod__C)
                  0002b0b8    00000004     release_pem4f.oem4f (.const:ti_sysbios_knl_Mailbox_Instance_State_freeQue__O)
                  0002b0bc    00000004     release_pem4f.oem4f (.const:ti_sysbios_knl_Mailbox_Object__count__C)
                  0002b0c0    00000004     release_pem4f.oem4f (.const:ti_sysbios_knl_Mailbox_maxTypeAlign__C)
                  0002b0c4    00000004     release_pem4f.oem4f (.const:ti_sysbios_knl_Semaphore_Instance_State_pendQ__O)
                  0002b0c8    00000004     release_pem4f.oem4f (.const:ti_sysbios_knl_Swi_Object__count__C)
                  0002b0cc    00000004     release_pem4f.oem4f (.const:ti_sysbios_knl_Task_E_deleteNotAllowed__C)
                  0002b0d0    00000004     release_pem4f.oem4f (.const:ti_sysbios_knl_Task_Module_State_inactiveQ__O)
                  0002b0d4    00000004     release_pem4f.oem4f (.const:ti_sysbios_knl_Task_Module_State_terminatedQ__O)
                  0002b0d8    00000004     release_pem4f.oem4f (.const:ti_sysbios_knl_Task_Object__count__C)
                  0002b0dc    00000004     release_pem4f.oem4f (.const:ti_sysbios_knl_Task_Object__heap__C)
                  0002b0e0    00000004     release_pem4f.oem4f (.const:ti_sysbios_knl_Task_allBlockedFunc__C)
                  0002b0e4    00000004     release_pem4f.oem4f (.const:ti_sysbios_knl_Task_defaultStackHeap__C)
                  0002b0e8    00000004     release_pem4f.oem4f (.const:ti_sysbios_knl_Task_defaultStackSize__C)
                  0002b0ec    00000004     release_pem4f.oem4f (.const:ti_sysbios_knl_Task_numConstructedTasks__C)
                  0002b0f0    00000004     release_pem4f.oem4f (.const:xdc_runtime_Error_E_memory__C)
                  0002b0f4    00000004     release_pem4f.oem4f (.const:xdc_runtime_Error_policyFxn__C)
                  0002b0f8    00000004     release_pem4f.oem4f (.const:xdc_runtime_IGateProvider_Interface__BASE__C)
                  0002b0fc    00000004     release_pem4f.oem4f (.const:xdc_runtime_IHeap_Interface__BASE__C)
                  0002b100    00000004     release_pem4f.oem4f (.const:xdc_runtime_IModule_Interface__BASE__C)
                  0002b104    00000004     release_pem4f.oem4f (.const:xdc_runtime_Memory_defaultHeapInstance__C)
                  0002b108    00000004     release_pem4f.oem4f (.const:xdc_runtime_Startup_execImpl__C)
                  0002b10c    00000004     release_pem4f.oem4f (.const:xdc_runtime_Startup_maxPasses__C)
                  0002b110    00000004     release_pem4f.oem4f (.const:xdc_runtime_Startup_sfxnRts__C)
                  0002b114    00000004     release_pem4f.oem4f (.const:xdc_runtime_Startup_sfxnTab__C)
                  0002b118    00000004     release_pem4f.oem4f (.const:xdc_runtime_SysCallback_abortFxn__C)
                  0002b11c    00000004     release_pem4f.oem4f (.const:xdc_runtime_SysCallback_exitFxn__C)
                  0002b120    00000004     release_pem4f.oem4f (.const:xdc_runtime_SysCallback_putchFxn__C)
                  0002b124    00000004     release_pem4f.oem4f (.const:xdc_runtime_SysCallback_readyFxn__C)
                  0002b128    00000004     release_pem4f.oem4f (.const:xdc_runtime_System_Module__gateObj__C)
                  0002b12c    00000004     release_pem4f.oem4f (.const:xdc_runtime_System_abortFxn__C)
                  0002b130    00000004     release_pem4f.oem4f (.const:xdc_runtime_System_exitFxn__C)
                  0002b134    00000004     release_pem4f.oem4f (.const:xdc_runtime_System_extendFxn__C)
                  0002b138    00000004     release_pem4f.oem4f (.const:xdc_runtime_System_maxAtexitHandlers__C)
                  0002b13c    00000002     release_pem4f.oem4f (.const:xdc_runtime_Memory_Module__id__C)

.cinit     0    0002b140    000006a0     
                  0002b140    00000677     (.cinit..data.load) [load image, compression = lzss]
                  0002b7b7    00000001     --HOLE-- [fill = 0]
                  0002b7b8    0000000c     (__TI_handler_table)
                  0002b7c4    00000004     --HOLE-- [fill = 0]
                  0002b7c8    00000008     (.cinit..bss.load) [load image, compression = zero_init]
                  0002b7d0    00000010     (__TI_cinit_table)

.init_array 
*          0    00000000    00000000     UNINITIALIZED

.bss       0    20020400    0001e76c     UNINITIALIZED
                  20020400    00011060     (.common:Global)
                  20031460    000048a8     ti_ndk_config.obj (.bss:NDK_MMBUFFER)
                  20035d08    00003f70     ti_ndk_config.obj (.bss:NDK_PACKETMEM)
                  20039c78    00003a00     release_pem4f.oem4f (.bss:taskStackSection)
                  2003d678    00000120     rtsv7M4_T_le_v4SPD16_eabi.lib : trgmsg.c.obj (.bss:_CIOBUF_)
                  2003d798    00000068     drivers_msp432e4.aem4f : EMACMSP432E4.oem4f (.bss:EMACMSP432E4_private)
                  2003d800    00000400     ti_drivers_config.obj (.bss:dmaControlTable)
                  2003dc00    00000360     (.common:ti_sysbios_family_arm_m3_Hwi_dispatchTable)
                  2003df60    00000100     stk.aem4f : igmp.oem4f (.bss:igmp)
                  2003e060    000000c8     (.common:uartMSP432E4Objects)
                  2003e128    000000bc     (.common:NDK_tcps)
                  2003e1e4    000000b4     netctrl_min_ipv4.aem4f : netsrv.oem4f (.bss:ipcfgcopy)
                  2003e298    000000a0     (.common:__TI_tmpnams)
                  2003e338    00000094     (.common:adcbufMSP432E4Objects)
                  2003e3cc    00000090     drivers_msp432e4.aem4f : EMACMSP432E4.oem4f (.bss:g_pRxDescriptors)
                  2003e45c    00000090                            : EMACMSP432E4.oem4f (.bss:g_pTxDescriptors)
                  2003e4ec    00000090                            : GPIOMSP432E4.oem4f (.bss:gpioCallbackInfo)
                  2003e57c    00000080     slnetsock_release.a : slnetsock.oem4f (.bss:VirtualSockets)
                  2003e5fc    00000080     ti_drivers_config.obj (.bss:uartMSP432E4RingBuffer1)
                  2003e67c    00000068     (.common:NDK_ips)
                  2003e6e4    00000068     (.common:timerMSP432E4Objects)
                  2003e74c    00000064     (.common:nimu_mcb)
                  2003e7b0    0000004c     (.common:NDK_ICMPIn)
                  2003e7fc    0000004c     (.common:NDK_ICMPOut)
                  2003e848    00000044     (.common:spiMSP432E4DMAObjects)
                  2003e88c    00000040     slnetifndk_msp432e4.aem4f : slnetifndk.oem4f (.bss:SlNetIfNDK_ifTable)
                  2003e8cc    00000028     netctrl_min_ipv4.aem4f : netsrv.oem4f (.bss:oscfgcopy)
                  2003e8f4    00000028     (.common:ti_ndk_socket_fdtable)
                  2003e91c    00000028     (.common:vlan_mcb)
                  2003e944    00000024     (.common:NDK_udps)
                  2003e968    00000020     hal_timer.aem4f : lltimer.oem4f (.bss)
                  2003e988    00000020     ti_drivers_config.obj (.bss:uartMSP432E4RingBuffer0)
                  2003e9a8    0000001c     os.aem4f : mem.oem4f (.bss:BlockCount)
                  2003e9c4    0000001c              : mem.oem4f (.bss:BlockMax)
                  2003e9e0    0000001c              : mem.oem4f (.bss:PageCount)
                  2003e9fc    0000001c              : mem.oem4f (.bss:PageMax)
                  2003ea18    0000001c     slnetifndk_msp432e4.aem4f : slnetifndk.oem4f (.bss:SlNetIfNDK_sem)
                  2003ea34    0000001c     slnetsock_release.a : slnetsock.oem4f (.bss:VirtualSocketSem)
                  2003ea50    00000018     (.common:stkEvent)
                  2003ea68    00000014     stk.aem4f : rtc.oem4f (.bss:pfnHook)
                  2003ea7c    00000010               : igmp.oem4f (.bss:igmpCount)
                  2003ea8c    00000010     drivers_msp432e4.aem4f : ADCBufMSP432E4.oem4f (.bss:timerSettings)
                  2003ea9c    00000010     (.common:NDK_raweths)
                  2003eaac    00000010     (.common:NDK_raws)
                  2003eabc    0000000c     (.common:PBMQ_free)
                  2003eac8    0000000c     (.common:tpseudo)
                  2003ead4    0000000c     (.common:upseudo)
                  2003eae0    00000008     netctrl_min_ipv4.aem4f : netctrl.oem4f (.bss)
                  2003eae8    00000008     stk.aem4f : ip.oem4f (.bss)
                  2003eaf0    00000008     (.common:parmbuf)
                  2003eaf8    00000008     (.common:ti_sysbios_knl_Task_Instance_State_0_hookEnv__A)
                  2003eb00    00000008     (.common:ti_sysbios_knl_Task_Instance_State_1_hookEnv__A)
                  2003eb08    00000008     (.common:ti_sysbios_knl_Task_Instance_State_2_hookEnv__A)
                  2003eb10    00000008     (.common:ti_sysbios_knl_Task_Instance_State_3_hookEnv__A)
                  2003eb18    00000008     (.common:ti_sysbios_knl_Task_Instance_State_4_hookEnv__A)
                  2003eb20    00000008     (.common:ti_sysbios_knl_Task_Instance_State_5_hookEnv__A)
                  2003eb28    00000008     (.common:ti_sysbios_knl_Task_Instance_State_6_hookEnv__A)
                  2003eb30    00000008     (.common:ti_sysbios_knl_Task_Instance_State_7_hookEnv__A)
                  2003eb38    00000008     (.common:udmaMSP432E4Object)
                  2003eb40    00000004     drivers_msp432e4.aem4f : GPIOMSP432E4.oem4f (.bss)
                  2003eb44    00000004     nettool_ipv4.aem4f : ipaddr.oem4f (.bss)
                  2003eb48    00000004     stk.aem4f : nimu.oem4f (.bss)
                  2003eb4c    00000004               : rtable.oem4f (.bss)
                  2003eb50    00000004     drivers_msp432e4.aem4f : TimerMSP432E4.oem4f (.bss:timerState)
                  2003eb54    00000004     (.common:_IGMPInDiscard)
                  2003eb58    00000004     (.common:_IGMPInQuery)
                  2003eb5c    00000004     (.common:_IGMPInQueryGroup)
                  2003eb60    00000004     (.common:_IGMPInResponse)
                  2003eb64    00000004     (.common:_IGMPOutResponse)
                  2003eb68    00000004     (.common:raweth_pcb)

.data      0    2003eb6c    0000108f     UNINITIALIZED
                  2003eb6c    00000260     release_pem4f.oem4f (.data:ti_sysbios_knl_Task_Object__table__V)
                  2003edcc    0000016c     drivers_msp432e4.aem4f : PowerMSP432E4.oem4f (.data:PowerMSP432E4_module)
                  2003ef38    00000120     release_pem4f.oem4f (.data:ti_sysbios_knl_Swi_Object__table__V)
                  2003f058    000000f0     rtsv7M4_T_le_v4SPD16_eabi.lib : defs.c.obj (.data:_ftable)
                  2003f148    000000b4     stk.aem4f : exec.oem4f (.data:_ipcfg)
                  2003f1fc    0000008c     sysbios.aem4f : BIOS.obj (.data:$O1$$)
                  2003f288    00000080     release_pem4f.oem4f (.data:ti_sysbios_knl_Swi_Module_State_0_readyQ__A)
                  2003f308    00000080     release_pem4f.oem4f (.data:ti_sysbios_knl_Task_Module_State_0_readyQ__A)
                  2003f388    00000078     rtsv7M4_T_le_v4SPD16_eabi.lib : host_device.c.obj (.data:_device)
                  2003f400    00000078     release_pem4f.oem4f (.data:ti_sysbios_knl_Semaphore_Object__table__V)
                  2003f478    00000058     slnetifndk_msp432e4.aem4f : slnetifndk.oem4f (.data:SlNetIfConfigNDK)
                  2003f4d0    00000054     release_pem4f.oem4f (.data:ti_sysbios_gates_GateMutex_Object__table__V)
                  2003f524    00000050     rtsv7M4_T_le_v4SPD16_eabi.lib : host_device.c.obj (.data:_stream)
                  2003f574    0000004d     nettool_ipv4.aem4f : dhcptags.oem4f (.data:DHCPTypeCode)
                  2003f5c1    00000002     drivers_msp432e4.aem4f : UDMAMSP432E4.oem4f (.data)
                  2003f5c3    00000001     ti_ndk_config.obj (.data:DHCP_OPTIONS$1)
                  2003f5c4    00000044     release_pem4f.oem4f (.data:ti_sysbios_knl_Task_Module__state__V)
                  2003f608    00000040     netctrl_min_ipv4.aem4f : netsrv.oem4f (.data:CloseOrder)
                  2003f648    00000040                            : netsrv.oem4f (.data:OpenOrder)
                  2003f688    00000040     release_pem4f.oem4f (.data:ti_sysbios_family_arm_lm4_Timer_Module_State_0_device__A)
                  2003f6c8    00000040     release_pem4f.oem4f (.data:ti_sysbios_family_arm_lm4_Timer_Object__table__V)
                  2003f708    00000034     stk.aem4f : tcptime.oem4f (.data:tcp_backoff)
                  2003f73c    00000034     release_pem4f.oem4f (.data:ti_sysbios_family_arm_m3_Hwi_Module__state__V)
                  2003f770    00000030     stk.aem4f : exec.oem4f (.data:tasks)
                  2003f7a0    0000002c     slnetsock_release.a : slnetutils.oem4f (.data:strErrorMsgs)
                  2003f7cc    0000002c     release_pem4f.oem4f (.data:ti_sysbios_knl_Clock_Module__state__V)
                  2003f7f8    00000028     os.aem4f : ossys.oem4f (.data:_oscfg)
                  2003f820    00000024              : mem.oem4f (.data)
                  2003f844    00000024     release_pem4f.oem4f (.data:ti_sysbios_BIOS_Module__state__V)
                  2003f868    00000020     ti_drivers_config.obj (.data:gpioCallbackFunctions)
                  2003f888    00000020     ti_drivers_config.obj (.data:gpioPinConfigs)
                  2003f8a8    00000020     stk.aem4f : rtc.oem4f (.data:pstrMsgName)
                  2003f8c8    00000020     release_pem4f.oem4f (.data:ti_sysbios_family_arm_lm4_Timer_Module_State_0_handles__A)
                  2003f8e8    00000020     release_pem4f.oem4f (.data:ti_sysbios_gates_GateSwi_Object__table__V)
                  2003f908    00000020     release_pem4f.oem4f (.data:xdc_runtime_Error_IgnoreBlock)
                  2003f928    0000001c     netctrl_min_ipv4.aem4f : netctrl.oem4f (.data)
                  2003f944    0000001c     ti_ndk_config.obj (.data:ti_ndk_config_Global_Id2Size)
                  2003f960    0000001c     release_pem4f.oem4f (.data:ti_sysbios_knl_Swi_Module__state__V)
                  2003f97c    00000018     udpEchoHooks.obj (.data:taskName$3)
                  2003f994    00000018     release_pem4f.oem4f (.data:ti_sysbios_family_arm_m3_Hwi_Object__table__V)
                  2003f9ac    00000018     release_pem4f.oem4f (.data:ti_sysbios_heaps_HeapMem_Object__table__V)
                  2003f9c4    00000014     stk.aem4f : sockpcb.oem4f (.data:pSockList)
                  2003f9d8    00000014     udpEchoHooks.obj (.data:reportStr$4)
                  2003f9ec    00000014     udpEchoHooks.obj (.data:statusStr$5)
                  2003fa00    00000014     stk.aem4f : rtable.oem4f (.data)
                  2003fa14    00000014     release_pem4f.oem4f (.data:ti_sysbios_family_arm_lm4_Seconds_Module__state__V)
                  2003fa28    00000010     ti_drivers_config.obj (.data:adcBuf0MSP432E4Channels)
                  2003fa38    00000010     drivers_msp432e4.aem4f : EMACMSP432E4.oem4f (.data:g_RxDescList)
                  2003fa48    00000010                            : EMACMSP432E4.oem4f (.data:g_TxDescList)
                  2003fa58    00000010     os.aem4f : os_ll.oem4f (.data)
                  2003fa68    00000010     rtsv7M4_T_le_v4SPD16_eabi.lib : defs.c.obj (.data)
                  2003fa78    00000010     stk.aem4f : igmp.oem4f (.data)
                  2003fa88    0000000c     rtsv7M4_T_le_v4SPD16_eabi.lib : exit.c.obj (.data:$O1$$)
                  2003fa94    0000000c     stk.aem4f : socket.oem4f (.data)
                  2003faa0    0000000c     release_pem4f.oem4f (.data:ti_sysbios_family_arm_lm4_Timer_Module__state__V)
                  2003faac    0000000b     stk.aem4f : tcpout.oem4f (.data:tcp_outflags)
                  2003fab7    00000001     drivers_msp432e4.aem4f : ADCBuf.oem4f (.data)
                  2003fab8    00000008     rtsv7M4_T_le_v4SPD16_eabi.lib : _lock.c.obj (.data:$O1$$)
                  2003fac0    00000008     ti_ndk_config.obj (.data:NIMUDeviceTable)
                  2003fac8    00000008     drivers_msp432e4.aem4f : ADCBufMSP432E4.oem4f (.data:globalMutex)
                  2003fad0    00000008     infrastructure.obj (.data:last$1)
                  2003fad8    00000008     infrastructure.obj (.data:lastlast$2)
                  2003fae0    00000008     netctrl_min_ipv4.aem4f : netsrv.oem4f (.data)
                  2003fae8    00000008     stk.aem4f : exec.oem4f (.data)
                  2003faf0    00000008               : icmp.oem4f (.data)
                  2003faf8    00000008               : ip.oem4f (.data)
                  2003fb00    00000008               : ipin.oem4f (.data)
                  2003fb08    00000008               : lli.oem4f (.data)
                  2003fb10    00000008               : rtc.oem4f (.data)
                  2003fb18    00000008               : tcp.oem4f (.data)
                  2003fb20    00000008               : timer.oem4f (.data)
                  2003fb28    00000008     ti_ndk_config.obj (.data)
                  2003fb30    00000008     release_pem4f.oem4f (.data:ti_sysbios_family_arm_m3_Hwi_Module__root__V)
                  2003fb38    00000008     release_pem4f.oem4f (.data:ti_sysbios_gates_GateHwi_Module__root__V)
                  2003fb40    00000008     release_pem4f.oem4f (.data:ti_sysbios_gates_GateMutex_Module__root__V)
                  2003fb48    00000008     release_pem4f.oem4f (.data:ti_sysbios_gates_GateSwi_Module__root__V)
                  2003fb50    00000008     release_pem4f.oem4f (.data:ti_sysbios_heaps_HeapMem_Module__root__V)
                  2003fb58    00000008     release_pem4f.oem4f (.data:ti_sysbios_knl_Clock_Module__root__V)
                  2003fb60    00000008     release_pem4f.oem4f (.data:ti_sysbios_knl_Queue_Module__root__V)
                  2003fb68    00000008     release_pem4f.oem4f (.data:ti_sysbios_knl_Semaphore_Module__root__V)
                  2003fb70    00000008     release_pem4f.oem4f (.data:ti_sysbios_knl_Task_Module__root__V)
                  2003fb78    00000008     release_pem4f.oem4f (.data:xdc_runtime_Startup_Module__state__V)
                  2003fb80    00000008     release_pem4f.oem4f (.data:xdc_runtime_System_Module_State_0_atexitHandlers__A)
                  2003fb88    00000008     release_pem4f.oem4f (.data:xdc_runtime_System_Module__state__V)
                  2003fb90    00000006     stk.aem4f : lliout.oem4f (.data:bEtherBCast)
                  2003fb96    00000006     ti_drivers_config.obj (.data:macAddress)
                  2003fb9c    00000005     drivers_msp432e4.aem4f : GPIOMSP432E4.oem4f (.data)
                  2003fba1    00000001                            : SPI.oem4f (.data)
                  2003fba2    00000002     nettool_ipv4.aem4f : dnscomn.oem4f (.data)
                  2003fba4    00000005     os.aem4f : task.oem4f (.data)
                  2003fba9    00000002     slnetifndk_msp432e4.aem4f : slnetifndk.oem4f (.data)
                  2003fbab    00000001     drivers_msp432e4.aem4f : Timer.oem4f (.data)
                  2003fbac    00000004     hal_timer.aem4f : lltimer.oem4f (.data)
                  2003fbb0    00000004     nettool_ipv4.aem4f : config.oem4f (.data)
                  2003fbb4    00000004     rtsv7M4_T_le_v4SPD16_eabi.lib : stkdepth_vars.c.obj (.data)
                  2003fbb8    00000004     ti_drivers_config.obj (.data:seqPriorities0)
                  2003fbbc    00000004     slnetsock_release.a : slnetif.oem4f (.data)
                  2003fbc0    00000004     stk.aem4f : bind.oem4f (.data)
                  2003fbc4    00000004               : ipfrag.oem4f (.data)
                  2003fbc8    00000004               : lliin.oem4f (.data)
                  2003fbcc    00000004               : node.oem4f (.data)
                  2003fbd0    00000004               : pbm.oem4f (.data)
                  2003fbd4    00000004               : sockpcb.oem4f (.data)
                  2003fbd8    00000004     release_pem4f.oem4f (.data:ti_sysbios_family_arm_m3_Hwi_Module_State_0_excContext__A)
                  2003fbdc    00000004     release_pem4f.oem4f (.data:ti_sysbios_family_arm_m3_Hwi_Module_State_0_excStack__A)
                  2003fbe0    00000004     release_pem4f.oem4f (.data:ti_sysbios_gates_GateHwi_Object__table__V)
                  2003fbe4    00000004     release_pem4f.oem4f (.data:ti_sysbios_knl_Task_Module_State_0_idleTask__A)
                  2003fbe8    00000004     release_pem4f.oem4f (.data:ti_sysbios_rts_ti_ReentSupport_Module__state__V)
                  2003fbec    00000004     ti_drivers_config.obj (.data:triggerSource0)
                  2003fbf0    00000004     release_pem4f.oem4f (.data:xdc_runtime_Memory_Module__state__V)
                  2003fbf4    00000003     udpEchoHooks.obj (.data)
                  2003fbf7    00000001     drivers_msp432e4.aem4f : UART.oem4f (.data)
                  2003fbf8    00000002     release_pem4f.oem4f (.data:ti_sysbios_family_arm_m3_Hwi_Module_State_0_excActive__A)
                  2003fbfa    00000001     slnetsock_release.a : slnetsock.oem4f (.data)

.priheap   0    20000360    00020000     UNINITIALIZED
                  20000360    00020000     --HOLE--

.stack     0    2003fc00    00000400     UNINITIALIZED
                  2003fc00    00000400     --HOLE--

.bootVecs 
*          0    00000000    00000008     DSECT
                  00000000    00000008     boot.aem4f : boot.oem4f (.bootVecs)

.resetVecs 
*          0    00000000    0000003c     
                  00000000    0000003c     release_pem4f.oem4f (.resetVecs)

.vecs      0    20000000    00000360     NOLOAD SECTION
                  20000000    00000360     release_pem4f.oem4f (.vecs)

xdc.meta   0    00000000    00000104     COPY SECTION
                  00000000    00000104     release_pem4f.oem4f (xdc.meta)

xdc.noload 
*          0    00000000    00000000     COPY SECTION

__llvm_prf_cnts 
*          0    20000000    00000000     UNINITIALIZED

.binit     0    00000000    00000000     

MODULE SUMMARY

       Module                        code     ro data   rw data
       ------                        ----     -------   -------
    .\src\
       callbacks.obj                 904      0         69728  
       infrastructure.obj            46049    0         16     
       udpEcho.obj                   1884     0         0      
       tasks.obj                     1644     0         0      
       udpEchoHooks.obj              876      116       67     
       sinlut.obj                    0        514       0      
       main_tirtos.obj               30       0         0      
    +--+-----------------------------+--------+---------+---------+
       Total:                        51387    630       69811  
                                                               
    .\syscfg\
       ti_ndk_config.obj             642      30        34925  
       ti_drivers_config.obj         66       363       1806   
       ti_net_config.obj             68       0         0      
    +--+-----------------------------+--------+---------+---------+
       Total:                        776      393       36731  
                                                               
    C:\Users\jonat\ECE5380_workspace_2\tirtos_builds_MSP_EXP432E401Y_release_ccs\Debug\configPkg\package\cfg\
       release_pem4f.oem4f           2334     1301      18650  
    +--+-----------------------------+--------+---------+---------+
       Total:                        2334     1301      18650  
                                                               
    C:/ti/simplelink_msp432e4_sdk_4_20_00_12/kernel/tirtos/packages/ti/dpl/lib/dpl_msp432e4.aem4f
       SemaphoreP_tirtos.oem4f       146      0         0      
       HwiP_tirtos.oem4f             108      0         0      
       ClockP_tirtos.oem4f           102      0         0      
       PowerMSP432E4_tirtos.oem4f    16       0         0      
    +--+-----------------------------+--------+---------+---------+
       Total:                        372      0         0      
                                                               
    C:/ti/simplelink_msp432e4_sdk_4_20_00_12/source/ti/devices/msp432e4/driverlib/lib/ccs/m4f/msp432e4_driverlib.a
       emac.o                        1316     24        0      
       gpio.o                        1174     72        0      
       udma.o                        740      0         0      
       sysctl.o                      710      0         0      
       uart.o                        588      0         0      
       ssi.o                         394      0         0      
       timer.o                       360      0         0      
       adc.o                         358      0         0      
       flash.o                       40       0         0      
    +--+-----------------------------+--------+---------+---------+
       Total:                        5680     96        0      
                                                               
    C:/ti/simplelink_msp432e4_sdk_4_20_00_12/source/ti/drivers/lib/drivers_msp432e4.aem4f
       UARTMSP432E4.oem4f            2914     116       0      
       ADCBufMSP432E4.oem4f          2752     80        24     
       EMACMSP432E4.oem4f            2262     0         424    
       SPIMSP432E4DMA.oem4f          2114     53        0      
       GPIOMSP432E4.oem4f            1052     196       153    
       TimerMSP432E4.oem4f           1168     32        4      
       PowerMSP432E4.oem4f           336      0         364    
       UART.oem4f                    176      36        1      
       RingBuf.oem4f                 198      0         0      
       ADCBuf.oem4f                  172      24        1      
       SPI.oem4f                     162      32        1      
       Timer.oem4f                   168      12        1      
       UDMAMSP432E4.oem4f            158      0         2      
    +--+-----------------------------+--------+---------+---------+
       Total:                        13632    581       975    
                                                               
    C:/ti/simplelink_msp432e4_sdk_4_20_00_12/source/ti/ndk/hal/ser_stub/lib/hal_ser_stub.aem4f
       llserstb.oem4f                10       0         0      
    +--+-----------------------------+--------+---------+---------+
       Total:                        10       0         0      
                                                               
    C:/ti/simplelink_msp432e4_sdk_4_20_00_12/source/ti/ndk/hal/timer_bios/lib/hal_timer.aem4f
       lltimer.oem4f                 308      0         36     
    +--+-----------------------------+--------+---------+---------+
       Total:                        308      0         36     
                                                               
    C:/ti/simplelink_msp432e4_sdk_4_20_00_12/source/ti/ndk/hal/userled_stub/lib/hal_userled_stub.aem4f
       llled.oem4f                   4        0         0      
    +--+-----------------------------+--------+---------+---------+
       Total:                        4        0         0      
                                                               
    C:/ti/simplelink_msp432e4_sdk_4_20_00_12/source/ti/ndk/netctrl/lib/netctrl_min_ipv4.aem4f
       netsrv.oem4f                  1126     0         356    
       netctrl.oem4f                 1112     0         60     
    +--+-----------------------------+--------+---------+---------+
       Total:                        2238     0         416    
                                                               
    C:/ti/simplelink_msp432e4_sdk_4_20_00_12/source/ti/ndk/nettools/lib/nettool_ipv4.aem4f
       dnscomn.oem4f                 3034     0         2      
       config.oem4f                  1760     0         4      
       dnspkt.oem4f                  1585     0         0      
       dhcpsm.oem4f                  1030     0         0      
       dnsclnt.oem4f                 756      0         0      
       ipaddr.oem4f                  582      0         4      
       dhcpbild.oem4f                490      0         0      
       dhcpmain.oem4f                466      0         0      
       dhcppkt.oem4f                 464      0         0      
       dhcptags.oem4f                264      0         77     
       dhcpsock.oem4f                336      0         0      
       inetaddr.oem4f                276      0         0      
    +--+-----------------------------+--------+---------+---------+
       Total:                        11043    0         87     
                                                               
    C:/ti/simplelink_msp432e4_sdk_4_20_00_12/source/ti/ndk/os/lib/os.aem4f
       mem.oem4f                     1278     0         148    
       task.oem4f                    548      0         5      
       os_ll.oem4f                   380      0         16     
       ossys.oem4f                   192      0         40     
       semaphore.oem4f               154      0         0      
       NDK_SemaphoreP_tirtos.oem4f   90       0         0      
       oem.oem4f                     4        0         0      
    +--+-----------------------------+--------+---------+---------+
       Total:                        2646     0         209    
                                                               
    C:/ti/simplelink_msp432e4_sdk_4_20_00_12/source/ti/ndk/slnetif/lib/slnetifndk_msp432e4.aem4f
       slnetifndk.oem4f              8120     0         182    
    +--+-----------------------------+--------+---------+---------+
       Total:                        8120     0         182    
                                                               
    C:/ti/simplelink_msp432e4_sdk_4_20_00_12/source/ti/ndk/stack/lib/stk.aem4f
       sock.oem4f                    3742     0         0      
       tcpin.oem4f                   3478     0         0      
       tcpout.oem4f                  2788     0         11     
       nimu.oem4f                    1813     0         104    
       igmp.oem4f                    1582     0         308    
       sockpcb.oem4f                 1516     0         24     
       socket.oem4f                  1498     0         12     
       fileuser.oem4f                1378     0         0      
       tcpprot.oem4f                 1268     0         0      
       rtable.oem4f                  1142     0         24     
       ipout.oem4f                   1164     0         0      
       udp.oem4f                     1116     0         48     
       node.oem4f                    1079     0         4      
       ipin.oem4f                    1026     0         8      
       rawethsock.oem4f              982      0         0      
       tcptime.oem4f                 821      0         52     
       icmp.oem4f                    676      0         160    
       sb.oem4f                      832      0         0      
       icmpin.oem4f                  814      0         0      
       ipfrag.oem4f                  728      0         4      
       rtc.oem4f                     592      62        60     
       route.oem4f                   708      0         0      
       sockint.oem4f                 704      0         0      
       tcp.oem4f                     488      0         208    
       lliout.oem4f                  672      0         6      
       lli.oem4f                     652      0         8      
       bind.oem4f                    650      0         4      
       lliin.oem4f                   628      0         4      
       pbm.oem4f                     578      0         16     
       exec.oem4f                    310      0         236    
       ip.oem4f                      410      0         120    
       file.oem4f                    486      0         0      
       pipe.oem4f                    446      0         0      
       vlan.oem4f                    390      0         40     
       raw.oem4f                     408      0         16     
       timer.oem4f                   266      0         8      
       raweth.oem4f                  224      0         16     
       rawethsock_pcb.oem4f          236      0         4      
       sockprot.oem4f                98       84        0      
       listlib.oem4f                 110      0         0      
       rawethsock_prot.oem4f         8        0         0      
       nat.oem4f                     2        0         0      
    +--+-----------------------------+--------+---------+---------+
       Total:                        38509    146       1505   
                                                               
    C:/ti/simplelink_msp432e4_sdk_4_20_00_12/source/ti/net/lib/ccs/m4f/slnetsock_release.a
       slnetutils.oem4f              2200     422       44     
       slnetsock.oem4f               1492     0         157    
       slnetif.oem4f                 492      0         4      
       errnoutil.oem4f               288      0         0      
       socket.oem4f                  130      0         0      
       netdb.oem4f                   112      0         0      
    +--+-----------------------------+--------+---------+---------+
       Total:                        4714     422       205    
                                                               
    C:\Users\jonat\ECE5380_workspace_2\tirtos_builds_MSP_EXP432E401Y_release_ccs\src\sysbios\sysbios.aem4f
       BIOS.obj                      12207    528       140    
       m3_Hwi_asm.obj                318      0         0      
       m3_TaskSupport_asm.obj        180      0         0      
       m3_Hwi_asm_switch.obj         118      0         0      
    +--+-----------------------------+--------+---------+---------+
       Total:                        12823    528       140    
                                                               
    C:\ti\ccs1280\ccs\tools\compiler\ti-cgt-arm_20.2.7.LTS\lib\rtsv7M4_T_le_v4SPD16_eabi.lib
       _printfi.c.obj                4851     0         0      
       _scanfi.c.obj                 2836     16        0      
       strtod.c.obj                  1120     200       0      
       strtoll.c.obj                 476      0         0      
       fd_add_t2.asm.obj             438      0         0      
       defs.c.obj                    0        0         416    
       trgmsg.c.obj                  108      0         288    
       strtoull.c.obj                348      0         0      
       fd_div_t2.asm.obj             310      0         0      
       strtol.c.obj                  304      0         0      
       fputs.c.obj                   276      0         0      
       s_scalbn.c.obj                272      0         0      
       strtoul.c.obj                 272      0         0      
       fd_cmp_t2.asm.obj             268      0         0      
       ctype.c.obj                   0        257       0      
       fd_mul_t2.asm.obj             252      0         0      
       s_floor.c.obj                 248      0         0      
       setvbuf.c.obj                 220      0         0      
       fflush.c.obj                  200      0         0      
       host_device.c.obj             0        0         200    
       s_round.c.obj                 196      0         0      
       sscanf.c.obj                  186      0         0      
       memcpy_t2.asm.obj             156      0         0      
       ull_div_t2.asm.obj            150      0         0      
       snprintf.c.obj                148      0         0      
       memset_t2.asm.obj             122      0         0      
       fclose.c.obj                  116      0         0      
       getdevice.c.obj               116      0         0      
       fd_tos_t2.asm.obj             110      0         0      
       hostrename.c.obj              108      0         0      
       copy_decompress_lzss.c.obj    104      0         0      
       hostlseek.c.obj               104      0         0      
       hostopen.c.obj                96       0         8      
       fseek.c.obj                   100      0         0      
       s_frexp.c.obj                 100      0         0      
       _io_perm.c.obj                98       0         0      
       sprintf.c.obj                 98       0         0      
       close.c.obj                   92       0         0      
       hostread.c.obj                88       0         0      
       hostwrite.c.obj               88       0         0      
       _ltoa.c.obj                   84       0         0      
       atoi.c.obj                    76       0         0      
       cpy_tbl.c.obj                 76       0         0      
       vsprintf.c.obj                74       0         0      
       fd_toi_t2.asm.obj             72       0         0      
       fd_tou_t2.asm.obj             68       0         0      
       hostclose.c.obj               68       0         0      
       hostunlink.c.obj              68       0         0      
       u_divt2.asm.obj               64       0         0      
       fs_tod_t2.asm.obj             56       0         0      
       strncpy.c.obj                 54       0         0      
       fopen.c.obj                   52       0         0      
       strstr.c.obj                  52       0         0      
       i_tofd_t2.asm.obj             46       0         0      
       strncmp.c.obj                 44       0         0      
       unlink.c.obj                  44       0         0      
       lseek.c.obj                   40       0         0      
       memmov.c.obj                  40       0         0      
       write.c.obj                   40       0         0      
       _lock.c.obj                   26       0         8      
       memchr.c.obj                  32       0         0      
       u_tofd_t2.asm.obj             32       0         0      
       strcat.c.obj                  30       0         0      
       assert.c.obj                  28       0         0      
       memccpy.c.obj                 28       0         0      
       s_copysign.c.obj              26       0         0      
       args_main.c.obj               24       0         0      
       ll_mul_t2.asm.obj             24       0         0      
       strcmp.c.obj                  24       0         0      
       strrchr.c.obj                 24       0         0      
       strchr.c.obj                  22       0         0      
       strcpy.c.obj                  20       0         0      
       strlen.c.obj                  20       0         0      
       wcslen.c.obj                  18       0         0      
       exit.c.obj                    4        0         12     
       isdigit.c.obj                 16       0         0      
       isprint.c.obj                 16       0         0      
       isspace.c.obj                 16       0         0      
       tolower.c.obj                 16       0         0      
       copy_decompress_none.c.obj    14       0         0      
       copy_zero_init.c.obj          12       0         0      
       stkdepth_vars.c.obj           0        0         4      
       div0.asm.obj                  2        0         0      
    +--+-----------------------------+--------+---------+---------+
       Total:                        16767    473       936    
                                                               
    C:\ti\simplelink_msp432e4_sdk_4_20_00_12\kernel\tirtos\packages\ti\targets\arm\rtsarm\lib\auto_init.aem4f
       auto_init.oem4f               160      0         0      
    +--+-----------------------------+--------+---------+---------+
       Total:                        160      0         0      
                                                               
    C:\ti\simplelink_msp432e4_sdk_4_20_00_12\kernel\tirtos\packages\ti\targets\arm\rtsarm\lib\boot.aem4f
       boot.oem4f                    88       0         0      
    +--+-----------------------------+--------+---------+---------+
       Total:                        88       0         0      
                                                               
       Stack:                        0        0         1024   
       Linker Generated:             0        1691      0      
    +--+-----------------------------+--------+---------+---------+
       Grand Total:                  171611   6261      130907 


LINKER GENERATED COPY TABLES

__TI_cinit_table @ 0002b7d0 records: 2, size/record: 8, table size: 16
	.data: load addr=0002b140, load size=00000677 bytes, run addr=2003eb6c, run size=0000108f bytes, compression=lzss
	.bss: load addr=0002b7c8, load size=00000008 bytes, run addr=20020400, run size=0001e76c bytes, compression=zero_init


LINKER GENERATED HANDLER TABLE

__TI_handler_table @ 0002b7b8 records: 3, size/record: 4, table size: 12
	index: 0, handler: __TI_decompress_lzss
	index: 1, handler: __TI_decompress_none
	index: 2, handler: __TI_zero_init


GLOBAL SYMBOLS: SORTED ALPHABETICALLY BY Name 

address   name                                                            
-------   ----                                                            
0002af5d  ADCBUF_CHANNEL_0_CONST                                          
0001a5cb  ADCBufMSP432E4_adjustRawValues                                  
00019881  ADCBufMSP432E4_close                                            
0002085b  ADCBufMSP432E4_control                                          
00024a85  ADCBufMSP432E4_convert                                          
00026b51  ADCBufMSP432E4_convertAdjustedToMicroVolts                      
0001df21  ADCBufMSP432E4_convertCancel                                    
0002aacc  ADCBufMSP432E4_fxnTable                                         
0000ede5  ADCBufMSP432E4_getResolution                                    
00022fb1  ADCBufMSP432E4_init                                             
00010c35  ADCBufMSP432E4_open                                             
00029581  ADCBuf_Params_init                                              
0002afb0  ADCBuf_config                                                   
00029dad  ADCBuf_convert                                                  
00029db7  ADCBuf_convertCancel                                            
0002af5e  ADCBuf_count                                                    
0002ae2c  ADCBuf_defaultParams                                            
00025341  ADCBuf_init                                                     
00025b45  ADCBuf_open                                                     
00028aa1  ADCBusy                                                         
000297c5  ADCIntClearEx                                                   
000297d7  ADCPhaseDelaySet                                                
00028c45  ADCReferenceSet                                                 
00028f15  ADCSequenceDisable                                              
0001a301  ADCSequenceStepConfigure                                        
00028239  BindFindByHost                                                  
00028c61  BindFindByIF                                                    
00027e4d  BindFindByNet                                                   
00023685  BindFree                                                        
00029bc9  BindGetFirst                                                    
00017755  BindGetIF                                                       
0002825d  BindGetIFByDBCast                                               
00028f2f  BindGetIP                                                       
00017d1d  BindGetNext                                                     
00029939  BindIF2IPHost                                                   
00029949  BindIFNet2IPHost                                                
00029595  BindIPHost2IF                                                   
000164d5  BindNew                                                         
0002719d  Board_init                                                      
00006247  Board_initHook                                                  
00026185  C$$EXIT                                                         
00026a2f  C$$IO$$                                                         
0002af5c  CONFIG_ADCBUF_0_CONST                                           
0002af5f  CONFIG_GPIO_0_CONST                                             
0002af60  CONFIG_GPIO_1_CONST                                             
0002af61  CONFIG_GPIO_2_CONST                                             
0002af62  CONFIG_GPIO_3_CONST                                             
0002af63  CONFIG_GPIO_4_CONST                                             
0002af64  CONFIG_GPIO_5_CONST                                             
0002af65  CONFIG_GPIO_6_CONST                                             
0002af66  CONFIG_GPIO_7_CONST                                             
0002af67  CONFIG_SPI_0_CONST                                              
0002af69  CONFIG_TIMER_0_CONST                                            
0002af6a  CONFIG_TIMER_1_CONST                                            
0002af6c  CONFIG_UART_0_CONST                                             
0002af6d  CONFIG_UART_1_CONST                                             
00016b21  CfgAddEntry                                                     
00023b51  CfgEntryDeRef                                                   
000263ff  CfgEntryGetData                                                 
000281c1  CfgEntryInfo                                                    
000286ed  CfgEntryRef                                                     
0001e219  CfgExecute                                                      
00022001  CfgFree                                                         
0001f3b9  CfgGetEntry                                                     
000227d5  CfgGetEntryCnt                                                  
00026fd1  CfgGetImmediate                                                 
0001fced  CfgGetNextEntry                                                 
00024bf9  CfgNew                                                          
0001e2ad  CfgRemoveEntry                                                  
00029bd5  CfgSetDefault                                                   
0002300d  CfgSetExecuteOrder                                              
00026c29  CfgSetService                                                   
00029dc1  ClockP_Params_init                                              
00025b85  ClockP_create                                                   
00029be1  ClockP_delete                                                   
00018d45  ClockP_getCpuFreq                                               
0001a02d  ClockP_setTimeout                                               
0001bb6d  ClockP_start                                                    
0001c345  ClockP_stop                                                     
0002a844  Code2Err                                                        
00026289  DHCPClose                                                       
00013f59  DHCPOpen                                                        
00025385  DNSBuildRequest                                                 
0001da3d  DNSGetHostArrayByName                                           
0001c4cd  DNSGetHostByName                                                
00012039  DNSGetReply                                                     
00023df5  DNSReplyFree                                                    
0001ea11  DNSResolveQuery                                                 
00021465  DbgPrintf                                                       
00023069  EMACAddrSet                                                     
00022835  EMACConfigGet                                                   
00023f91  EMACConfigSet                                                   
000287bd  EMACFrameFilterSet                                              
0001ad11  EMACInit                                                        
000236dd  EMACIntClear                                                    
00022895  EMACIntDisable                                                  
00022e39  EMACIntEnable                                                   
000230c5  EMACIntStatus                                                   
00014ba1  EMACMSP432E4_NIMUInit                                           
0002ae44  EMACMSP432E4_hwAttrs                                            
000271cd  EMACMSP432E4_isLinkUp                                           
000214d1  EMACPHYConfigSet                                                
00024485  EMACPHYRead                                                     
000242b1  EMACPHYWrite                                                    
0002870f  EMACReset                                                       
000295bd  EMACRxDMADescriptorListSet                                      
00028731  EMACRxEnable                                                    
000295d1  EMACTxDMADescriptorListSet                                      
000297e9  EMACTxDMAPollDemand                                             
00028753  EMACTxEnable                                                    
00017add  ErrnoUtil_set                                                   
0002643d  ExecClose                                                       
00029959  ExecHRef                                                        
00029b59  ExecLowResource                                                 
0001db79  ExecOpen                                                        
000282a5  ExecTimer                                                       
00027857  FdSignalEvent                                                   
00022065  FdWaitEvent                                                     
00027e75  FlashUserGet                                                    
00023121  GPIODirModeSet                                                  
000295e5  GPIOIntClear                                                    
00028f49  GPIOIntEnable                                                   
00028775  GPIOIntStatus                                                   
0001d5c9  GPIOIntTypeSet                                                  
0002af34  GPIOMSP432E4_config                                             
000295f9  GPIOMSP432E4_getGpioBaseAddr                                    
0002960d  GPIOMSP432E4_getPowerResourceId                                 
000271fd  GPIOMSP432E4_undoPinConfig                                      
00010181  GPIOPadConfigSet                                                
000253c9  GPIOPinConfigure                                                
00029033  GPIOPinRead                                                     
000282c9  GPIOPinTypeADC                                                  
000282ed  GPIOPinTypeEthernetLED                                          
00028311  GPIOPinTypeSSI                                                  
00028335  GPIOPinTypeUART                                                 
000287fd  GPIOPinWrite                                                    
0002722d  GPIO_enableInt                                                  
00021ab9  GPIO_hwiIntFxn                                                  
0001d275  GPIO_init                                                       
0002725d  GPIO_read                                                       
00023735  GPIO_setCallback                                                
00014715  GPIO_setConfig                                                  
00023ba5  GPIO_write                                                      
20020400  Global                                                          
00020000  HEAPSIZE                                                        
0002540d  HOSTclose                                                       
00021b21  HOSTlseek                                                       
000228f5  HOSTopen                                                        
0002378d  HOSTread                                                        
0002153d  HOSTrename                                                      
00025451  HOSTunlink                                                      
000237e5  HOSTwrite                                                       
00029969  HwiP_Params_init                                                
0001c9f5  HwiP_clearInterrupt                                             
00025bc5  HwiP_create                                                     
00029bed  HwiP_delete                                                     
0001d7b5  HwiP_disable                                                    
0001f965  HwiP_disableInterrupt                                           
00020ced  HwiP_enableInterrupt                                            
00029ed9  HwiP_restore                                                    
00025495  ICMPChecksum                                                    
00015b75  ICMPGenPacket                                                   
0000f31d  ICMPInput                                                       
00019585  ICMPSendRtAdv                                                   
00013c29  IGMPInput                                                       
0001fde5  IGMPJoin                                                        
00023e47  IGMPLeave                                                       
0002094d  IGMPLeaveHostGroup                                              
0001e591  IGMPMsg                                                         
00027885  IGMPTestGroup                                                   
00026805  IPChecksum                                                      
0001d8fd  IPGetRoute                                                      
00028c99  IPIsLoopback                                                    
0001eaa1  IPMsg                                                           
0000fcd5  IPReasm                                                         
000254d9  IPReasmFree                                                     
00026841  IPReasmTimeout                                                  
0002904d  IPRtChange                                                      
0000b0c1  IPRxPacket                                                      
00009351  IPTxPacket                                                      
00027e9d  LLIFree                                                         
00019e4d  LLIGenArpPacket                                                 
0002551d  LLIGetValidTime                                                 
00024c41  LLIMsg                                                          
0001fa71  LLINew                                                          
00012401  LLIRxPacket                                                     
00013595  LLITxIpPacket                                                   
00025c05  LLIValidateRoute                                                
0002881d  NC_BootComplete                                                 
00029979  NC_IPUpdate                                                     
000105ed  NC_NetStart                                                     
00029621  NC_NetStop                                                      
00027ec5  NC_SystemClose                                                  
0001dfb9  NC_SystemOpen                                                   
00029ed9  NDK_HwiP_restore                                                
2003e7b0  NDK_ICMPIn                                                      
2003faf0  NDK_ICMPInErrors                                                
2003e7fc  NDK_ICMPOut                                                     
2003faf4  NDK_ICMPOutErrors                                               
00029bf9  NDK_SemaphoreP_create                                           
000278b1  NDK_SemaphoreP_createBinary                                     
00029c05  NDK_SemaphoreP_delete                                           
000297fb  NDK_SemaphoreP_pend                                             
00022515  NDK_SemaphoreP_post                                             
000219e5  NDK_accept                                                      
00023e99  NDK_bind                                                        
2003fa98  NDK_closeSockCtx                                                
00023fe1  NDK_connect                                                     
2003fa94  NDK_createSockCtx                                               
00028f63  NDK_getSockCtx                                                  
00022955  NDK_getpeername                                                 
000229b5  NDK_getsockname                                                 
0001fe61  NDK_getsockopt                                                  
00029c11  NDK_hookInit                                                    
2003e67c  NDK_ips                                                         
00025a3d  NDK_listen                                                      
2003fa9c  NDK_netStartError                                               
2003ea9c  NDK_raweths                                                     
2003eaac  NDK_raws                                                        
00021239  NDK_recv                                                        
000209c1  NDK_recvfrom                                                    
00027eed  NDK_registerHook                                                
00020dd7  NDK_send                                                        
000203af  NDK_sendto                                                      
0001fedd  NDK_setsockopt                                                  
00022a15  NDK_shutdown                                                    
00021b89  NDK_socket                                                      
00028cb5  NDK_sprintf                                                     
2003e128  NDK_tcps                                                        
2003e944  NDK_udps                                                        
0002257d  NDK_vsprintf                                                    
0001cf01  NIMUAddEthernetHeader                                           
00028cd1  NIMUAddHeader                                                   
00027f15  NIMUCreatePacket                                                
2003fac0  NIMUDeviceTable                                                 
00028359  NIMUFindByIndex                                                 
00026c91  NIMUFindByName                                                  
00029989  NIMUGetRsvdSizeInfo                                             
00015f91  NIMUInit                                                        
00018075  NIMUIoctl                                                       
00027f3d  NIMUPacketService                                               
000278dd  NIMUPacketServiceCheck                                          
0001b759  NIMUReceivePacket                                               
00020429  NIMURegister                                                    
00029635  NIMUSendPacket                                                  
00029c1d  NIMUSetRsvdSizeInfo                                             
00020a35  NIMUShutdown                                                    
00022a75  NIMUUnregister                                                  
0001ff59  NS_BootTask                                                     
0002728d  NS_PreBoot                                                      
0000828f  NatMsg                                                          
0001b325  NodeAdd                                                         
000242ff  NodeDeRef                                                       
00022ad5  NodeFind                                                        
00026879  NodeGetRt                                                       
00022d75  NodeSetRt                                                       
000185d9  NodeTreeFree                                                    
000215a9  NodeTreeNew                                                     
00024c89  NodeWalk                                                        
00029c29  NotifyLowResource                                               
000244d1  NtAddNetwork                                                    
0001427d  NtGetPublicHost                                                 
00025199  NtIfIdx2Ip                                                      
00029649  NtRemoveNetwork                                                 
00029ed9  OEMSysCritOff                                                   
0002189d  OEMSysCritOn                                                    
00027c7d  PBMQ_deq                                                        
000220c9  PBMQ_enq                                                        
2003eabc  PBMQ_free                                                       
0001faf1  PBM_alloc                                                       
00029c35  PBM_close                                                       
00025c45  PBM_copy                                                        
0001ffd5  PBM_free                                                        
00021615  PBM_open                                                        
00027003  PipeCheck                                                       
00027909  PipeClose                                                       
0001a6bd  PipeRecv                                                        
000206f9  PipeSend                                                        
0002afec  PowerMSP432E4_config                                            
2003edcc  PowerMSP432E4_module                                            
00029999  PowerMSP432E4_sleepPolicy                                       
00029065  Power_idleFunc                                                  
0002212d  Power_init                                                      
00021681  Power_releaseDependency                                         
00021bf1  Power_setDependency                                             
0002837d  RTCAddHook                                                      
00022b35  RTCMsg                                                          
0002885d  RTCRemoveHook                                                   
000152f1  RTCReport                                                       
00020aa9  RawEthRxPacket                                                  
0002351d  RawEthSockCheck                                                 
00026cc5  RawEthSockClose                                                 
0001bc41  RawEthSockGet                                                   
0002345d  RawEthSockGetCtx                                                
00019f3d  RawEthSockNew                                                   
00026cf9  RawEthSockNotify                                                
00023bf9  RawEthSockPcbAttach                                             
0002907d  RawEthSockPcbCleanup                                            
00024cd1  RawEthSockPcbDetach                                             
000283a1  RawEthSockPcbFind                                               
0002965d  RawEthSockPcbInit                                               
000234bd  RawEthSockPrAttach                                              
00023cf5  RawEthSockPrDetach                                              
000251df  RawEthSockSend                                                  
0001bd0d  RawEthSockSet                                                   
00025a7f  RawEthSockShutdown                                              
000216ed  RawEthTxPacket                                                  
00018189  RawInput                                                        
0001f5c9  RawOutput                                                       
0002980d  RingBuf_construct                                               
00025c85  RingBuf_get                                                     
00029b67  RingBuf_isFull                                                  
0002887d  RingBuf_peek                                                    
00025225  RingBuf_put                                                     
00025561  RouteMsg                                                        
000186e9  RtCreate                                                        
00027035  RtDeRef                                                         
000187f9  RtFind                                                          
00023577  RtRedirect                                                      
00022e97  RtRemove                                                        
00027067  RtSetFailure                                                    
000283e9  RtSetTimeout                                                    
000264b5  RtWalkBegin                                                     
000255a5  RtWalkEnd                                                       
000212a9  RtWalkNext                                                      
00027099  SBFlush                                                         
0002779f  SBFree                                                          
00022711  SBNew                                                           
0001573d  SBRead                                                          
000268b1  SBSetMax                                                        
0001b091  SBWrite                                                         
UNDEFED   SHT$$INIT_ARRAY$$Base                                           
UNDEFED   SHT$$INIT_ARRAY$$Limit                                          
0001dc15  SPIMSP432E4DMA_close                                            
00027163  SPIMSP432E4DMA_control                                          
0002ae5c  SPIMSP432E4DMA_fxnTable                                         
000248ad  SPIMSP432E4DMA_init                                             
0001322d  SPIMSP432E4DMA_open                                             
0001186d  SPIMSP432E4DMA_transfer                                         
00017889  SPIMSP432E4DMA_transferCancel                                   
00029671  SPI_Params_init                                                 
0002afbc  SPI_config                                                      
0002af68  SPI_count                                                       
0002ac0c  SPI_defaultParams                                               
000255e9  SPI_init                                                        
00025cc5  SPI_open                                                        
00029dcb  SPI_transfer                                                    
00028abf  SSIBusy                                                         
00020241  SSIConfigSetExpClk                                              
0002916d  SSIDMADisable                                                   
00029185  SSIDMAEnable                                                    
00028ced  SSIDataGet                                                      
00028f7d  SSIDataPut                                                      
000294a1  SSIDisable                                                      
000294b7  SSIEnable                                                       
0002981f  SSIIntClear                                                     
0002919d  SSIIntDisable                                                   
000291b5  SSIIntEnable                                                    
00028add  SSIIntStatus                                                    
000204a1  SWIgpioButtonSw1                                                
00020519  SWIgpioButtonSw2                                                
00025d05  SemCreate                                                       
0002526d  SemCreateBinary                                                 
00029c05  SemDelete                                                       
00029c05  SemDeleteBinary                                                 
000299a9  SemPend                                                         
000299a9  SemPendBinary                                                   
00022515  SemPost                                                         
00022515  SemPostBinary                                                   
000248fd  SemReset                                                        
00029e4f  SemaphoreP_Params_init                                          
000264f1  SemaphoreP_create                                               
00027935  SemaphoreP_createBinary                                         
00029c41  SemaphoreP_delete                                               
00029831  SemaphoreP_pend                                                 
0002494d  SemaphoreP_post                                                 
2003f478  SlNetIfConfigNDK                                                
00011c61  SlNetIfNDK_accept                                               
0001b3fd  SlNetIfNDK_bind                                                 
00017bfd  SlNetIfNDK_close                                                
000158a9  SlNetIfNDK_connect                                              
0001fbf1  SlNetIfNDK_getConnectionStatus                                  
00022191  SlNetIfNDK_getHostByName                                        
0001829d  SlNetIfNDK_getIPAddr                                            
00014899  SlNetIfNDK_getPeerName                                          
00014a1d  SlNetIfNDK_getSockName                                          
00008e61  SlNetIfNDK_getSockOpt                                           
00016d99  SlNetIfNDK_ifCreateContext                                      
0001b685  SlNetIfNDK_listen                                               
00014d1d  SlNetIfNDK_recv                                                 
00010805  SlNetIfNDK_recvFrom                                             
00016619  SlNetIfNDK_select                                               
000155d1  SlNetIfNDK_send                                                 
0001166d  SlNetIfNDK_sendTo                                               
0000d4b5  SlNetIfNDK_setSockOpt                                           
0001b8fd  SlNetIfNDK_shutdown                                             
0001a4dd  SlNetIfNDK_socket                                               
0001ab49  SlNetIf_add                                                     
0002840d  SlNetIf_getConnectionStatus                                     
000272bd  SlNetIf_getIDByName                                             
00027f65  SlNetIf_getIfByID                                               
0002499d  SlNetIf_init                                                    
00024081  SlNetIf_queryIf                                                 
00025d45  SlNetSock_bind                                                  
00026307  SlNetSock_close                                                 
0001e4fd  SlNetSock_create                                                
00024d19  SlNetSock_init                                                  
00022b95  SlNetSock_recvFrom                                              
00027f8d  SlNetSock_sdsClr                                                
00029685  SlNetSock_sdsClrAll                                             
00027fb5  SlNetSock_sdsIsSet                                              
00027fdd  SlNetSock_sdsSet                                                
00013dc1  SlNetSock_select                                                
00022bf5  SlNetSock_sendTo                                                
00024d61  SlNetSock_setOpt                                                
000299b9  SlNetUtil_freeAddrInfo                                          
000272ed  SlNetUtil_gaiStrErr                                             
0000befd  SlNetUtil_getAddrInfo                                           
0001f64d  SlNetUtil_getHostByName                                         
00026921  SlNetUtil_htonl                                                 
00026d2d  SlNetUtil_htons                                                 
00019979  SlNetUtil_inetAton                                              
00027cd1  SlNetUtil_inetPton                                              
000258d5  SlNetUtil_init                                                  
00026921  SlNetUtil_ntohl                                                 
00026d2d  SlNetUtil_ntohs                                                 
000202bb  SockAccept                                                      
0002731d  SockBind                                                        
0001f119  SockCheck                                                       
0001f6d1  SockCleanPcb                                                    
00019d59  SockClose                                                       
00015cd5  SockConnect                                                     
0001d479  SockCreatePacket                                                
00024b19  SockDisconnect                                                  
00011a69  SockGet                                                         
0002591d  SockGetCtx                                                      
0002734d  SockGetName                                                     
00025671  SockIntAbort                                                    
00021c59  SockListen                                                      
000133e1  SockNew                                                         
00016ed5  SockNotify                                                      
0002737d  SockPcbAttach                                                   
0001ac2d  SockPcbBind                                                     
00028431  SockPcbCleanup                                                  
00020b91  SockPcbConnect                                                  
0001ee71  SockPcbCtlError                                                 
000256b5  SockPcbDetach                                                   
0001675d  SockPcbResolve                                                  
00024da9  SockPcbResolveChain                                             
00025d85  SockPcbRtChange                                                 
00029843  SockPrAttach                                                    
00026d61  SockPrCtlError                                                  
00028d09  SockPrDetach                                                    
00011e4d  SockRecv                                                        
00017011  SockSend                                                        
0000eb39  SockSet                                                         
00029855  SockSetOOBData                                                  
00028f97  SockSetOOBMark                                                  
00020f29  SockShutdown                                                    
000221f5  SockSpawnAbort                                                  
00024569  SockValidateRoute                                               
000298eb  SysCtlDelay                                                     
00027961  SysCtlPeripheralClockGating                                     
00025dc5  SysCtlPeripheralDisable                                         
00025e05  SysCtlPeripheralEnable                                          
00025e45  SysCtlPeripheralPowerOff                                        
00025e85  SysCtlPeripheralPowerOn                                         
000256f9  SysCtlPeripheralPresent                                         
0002573d  SysCtlPeripheralReady                                           
0001eb2d  SysCtlPeripheralReset                                           
00025ec5  SysCtlPeripheralSleepDisable                                    
00025f05  SysCtlPeripheralSleepEnable                                     
00029e57  TaskBlock                                                       
00022c55  TaskCreate                                                      
00028d25  TaskDestroy                                                     
0001c939  TaskExit                                                        
0001d3cd  TaskGetEnv                                                      
00025965  TaskSelf                                                        
0001d66d  TaskSetEnv                                                      
000259ad  TaskSetPri                                                      
0001c349  TaskSleep                                                       
00026209  TaskYield                                                       
00023895  TcpChecksum                                                     
00026959  TcpClose                                                        
00024df1  TcpDrop                                                         
00014e95  TcpGenPacket                                                    
00003321  TcpInput                                                        
00006249  TcpOutput                                                       
0001f755  TcpPrAttach                                                     
0002652d  TcpPrConnect                                                    
000252b3  TcpPrCtlError                                                   
00023eeb  TcpPrDetach                                                     
00026345  TcpPrDisconnect                                                 
00022259  TcpPrGetOption                                                  
00021a4f  TcpPrInherit                                                    
00028455  TcpPrListen                                                     
00029b83  TcpPrRecv                                                       
00025f45  TcpPrSend                                                       
00025ac1  TcpPrSendOOB                                                    
00018e55  TcpPrSetOption                                                  
000291cd  TcpPseudoCs                                                     
00026569  TcpSetPersist                                                   
000291e5  TcpTimeoutAdd                                                   
000169e1  TcpTimeoutCheck                                                 
0001cd99  TcpTimeoutKeep                                                  
00023c4d  TcpTimeoutPersist                                               
0002889d  TcpTimeoutRemove                                                
0001adf1  TcpTimeoutRexmt                                                 
000207e5  TcpTimeoutSackRexmt                                             
00028479  TcpTimeoutWait2                                                 
000235d1  TcpValidateMetrics                                              
00020591  TcpXmitTimer                                                    
00026b87  TimerControlStall                                               
00022cb5  TimerControlTrigger                                             
00028afb  TimerDisable                                                    
00028b19  TimerEnable                                                     
00029699  TimerFree                                                       
00026991  TimerHSTick                                                     
00029867  TimerIntClear                                                   
000291fd  TimerIntDisable                                                 
00029215  TimerIntEnable                                                  
00027d25  TimerLoadSet                                                    
00021d29  TimerMSP432E4_allocateTimerResource                             
00026d95  TimerMSP432E4_close                                             
00029eb9  TimerMSP432E4_control                                           
00024601  TimerMSP432E4_freeTimerResource                                 
0002ac2c  TimerMSP432E4_fxnTable                                          
0002922d  TimerMSP432E4_getCount                                          
00008e5f  TimerMSP432E4_init                                              
00017f5d  TimerMSP432E4_open                                              
0001eef9  TimerMSP432E4_setPeriod                                         
00020d65  TimerMSP432E4_start                                             
0002434d  TimerMSP432E4_stop                                              
00024b65  TimerNew                                                        
00027d4f  TimerPrescaleSet                                                
000299c9  Timer_Params_init                                               
0002ae74  Timer_config                                                    
0002af6b  Timer_count                                                     
00025781  Timer_init                                                      
00025f85  Timer_open                                                      
00029dd5  Timer_setPeriod                                                 
00029ddf  Timer_start                                                     
00028b37  UARTBusy                                                        
000294cd  UARTCharGet                                                     
00028d41  UARTCharGetNonBlocking                                          
00028b55  UARTCharPut                                                     
0002849d  UARTCharPutNonBlocking                                          
00028b73  UARTCharsAvail                                                  
0002076f  UARTConfigSetExpClk                                             
000273ad  UARTDisable                                                     
000284c1  UARTEnable                                                      
00029245  UARTFIFOLevelSet                                                
00028d5d  UARTFlowControlSet                                              
00029879  UARTIntClear                                                    
0002925d  UARTIntDisable                                                  
00029275  UARTIntEnable                                                   
00028b91  UARTIntStatus                                                   
0001c58b  UARTMSP432E4_close                                              
0001e6b1  UARTMSP432E4_control                                            
0002aa7c  UARTMSP432E4_fxnTable                                           
00009c5f  UARTMSP432E4_init                                               
0000d1c5  UARTMSP432E4_open                                               
00025fc5  UARTMSP432E4_read                                               
00026bbd  UARTMSP432E4_readCancel                                         
0001dadb  UARTMSP432E4_readPolling                                        
0001e0e9  UARTMSP432E4_write                                              
00024e39  UARTMSP432E4_writeCancel                                        
0002464d  UARTMSP432E4_writePolling                                       
000299d9  UARTRxErrorClear                                                
0002988b  UARTRxErrorGet                                                  
00028d79  UARTTxIntModeSet                                                
0002928d  UART_Params_init                                                
0002ae8c  UART_config                                                     
0002af6e  UART_count                                                      
0002aaf0  UART_defaultParams                                              
000257c5  UART_init                                                       
00026005  UART_open                                                       
00029de9  UART_read                                                       
00029df3  UART_write                                                      
00020051  UART_write_prot                                                 
0001d711  UART_write_prot_bold                                            
000217c5  UART_write_prot_sl                                              
00029ebf  UDMAMSP432E4_close                                              
0002aff4  UDMAMSP432E4_config                                             
00026045  UDMAMSP432E4_init                                               
000238ed  UDMAMSP432E4_open                                               
000222bd  UdpChecksum                                                     
000103bd  UdpInput                                                        
00013745  UdpOutput                                                       
0001c705  VLANDeinit                                                      
0002802d  VLANInit                                                        
00022f53  VLANReceivePacket                                               
2003fa80  _IGMPForceVersion1                                              
2003eb54  _IGMPInDiscard                                                  
2003eb58  _IGMPInQuery                                                    
2003eb5c  _IGMPInQueryGroup                                               
2003eb60  _IGMPInResponse                                                 
2003eb64  _IGMPOutResponse                                                
2003faf8  _IPExecuting                                                    
2003fbc4  _IPReasmPtr                                                     
00024e81  _LLIExpListInsert                                               
0002798d  _LLIExpListRemove                                               
0001cb71  _LLITimeoutCheck                                                
000279b9  _LLITimeoutFlush                                                
00024ec9  _RtExpListInsert                                                
000279e5  _RtExpListRemove                                                
00021d91  _RtNodeInsert                                                   
000265e1  _RtNodeRemove                                                   
00029c4d  _TaskInit                                                       
00029c59  _TaskShutdown                                                   
00000000  __ASM__                                                         
2003d678  __CIOBUF_                                                       
00000085  __ISA__                                                         
00000098  __PLAT__                                                        
20040000  __STACK_END                                                     
00000400  __STACK_SIZE                                                    
000000bb  __TARG__                                                        
0002b7d0  __TI_CINIT_Base                                                 
0002b7e0  __TI_CINIT_Limit                                                
0002b7b8  __TI_Handler_Table_Base                                         
0002b7c4  __TI_Handler_Table_Limit                                        
0001d99d  __TI_auto_init                                                  
00026dc9  __TI_cleanup                                                    
2003fa88  __TI_cleanup_ptr                                                
00020c05  __TI_closefile                                                  
00021e61  __TI_decompress_lzss                                            
00029b75  __TI_decompress_none                                            
00024699  __TI_doflush                                                    
2003fa8c  __TI_dtors_ptr                                                  
2003fa90  __TI_enable_exit_profile_output                                 
2003fa68  __TI_ft_end                                                     
00023ca1  __TI_ltoa                                                       
ffffffff  __TI_pprof_out_hndl                                             
000057f9  __TI_printfi                                                    
ffffffff  __TI_prof_data_size                                             
ffffffff  __TI_prof_data_start                                            
00026dfd  __TI_readmsg                                                    
00004ce5  __TI_scanfi                                                     
0002b140  __TI_static_base__                                              
2003e298  __TI_tmpnams                                                    
00026a01  __TI_writemsg                                                   
00022773  __TI_wrt_ok                                                     
00029c89  __TI_zero_init                                                  
000000e1  __TRDR__                                                        
0001f225  __aeabi_cdcmpeq                                                 
0001f225  __aeabi_cdcmple                                                 
0001f2ab  __aeabi_cdrcmple                                                
00021385  __aeabi_d2f                                                     
00024f59  __aeabi_d2iz                                                    
0002584d  __aeabi_d2uiz                                                   
0001307f  __aeabi_dadd                                                    
00017289  __aeabi_ddiv                                                    
00019785  __aeabi_dmul                                                    
00013075  __aeabi_dsub                                                    
00029f19  __aeabi_errno_addr                                              
00026aa9  __aeabi_f2d                                                     
000277fb  __aeabi_i2d                                                     
00012223  __aeabi_idiv0                                                   
00012223  __aeabi_ldiv0                                                   
00029365  __aeabi_lmul                                                    
00020335  __aeabi_memclr                                                  
00020335  __aeabi_memclr4                                                 
00020335  __aeabi_memclr8                                                 
0001de85  __aeabi_memcpy                                                  
0001de85  __aeabi_memcpy4                                                 
0001de85  __aeabi_memcpy8                                                 
00020337  __aeabi_memset                                                  
00020337  __aeabi_memset4                                                 
00020337  __aeabi_memset8                                                 
2003fa74  __aeabi_stderr                                                  
2003fa6c  __aeabi_stdin                                                   
2003fa70  __aeabi_stdout                                                  
0002893d  __aeabi_ui2d                                                    
000260c5  __aeabi_uidiv                                                   
000260c5  __aeabi_uidivmod                                                
0001e181  __aeabi_uldivmod                                                
ffffffff  __binit__                                                       
ffffffff  __c_args__                                                      
20020360  __primary_heap_end__                                            
20000360  __primary_heap_start__                                          
2003fc00  __stack                                                         
20000000  __start___llvm_prf_cnts                                         
20000000  __stop___llvm_prf_cnts                                          
00028d95  _abort_msg                                                      
000292a5  _args_main                                                      
00023945  _c_int00                                                        
0002a53a  _ctypes_                                                        
2003f388  _device                                                         
2003f058  _ftable                                                         
2003f148  _ipcfg                                                          
000259f5  _llSerialInit                                                   
0000acf7  _llSerialServiceCheck                                           
0000b7f7  _llSerialShutdown                                               
0002661d  _llTimerInit                                                    
00029c65  _llTimerShutdown                                                
0000d1c3  _llUserLedInit                                                  
0000da8b  _llUserLedShutdown                                              
2003fab8  _lock                                                           
0001e341  _mmInit                                                         
0000fcd3  _nop                                                            
2003f7f8  _oscfg                                                          
00027a11  _pthread_cleanupFxn                                             
0001dcb1  _pthread_removeThreadKeys                                       
00029c71  _register_lock                                                  
00029c7d  _register_unlock                                                
2003f524  _stream                                                         
2003fabc  _unlock                                                         
00026185  abort                                                           
2003fa28  adcBuf0MSP432E4Channels                                         
00024121  adcBufCallback                                                  
000296ad  adcErrorSWI                                                     
0002ac4c  adcbufMSP432E4HWAttrs                                           
2003e338  adcbufMSP432E4Objects                                           
0001e741  addCallback                                                     
00001fa1  addError                                                        
0001c7c1  addOutMsg                                                       
0001dd4d  addPayload                                                      
0001ef81  addScript                                                       
00019069  addTicker                                                       
000246e5  atoi                                                            
000299e9  bind                                                            
ffffffff  binit                                                           
00027da3  calloc                                                          
000277cd  charCmp                                                         
0001a5d1  clock_gettime                                                   
00023235  close                                                           
00024731  copy_in                                                         
00028fb1  copysign                                                        
00028fb1  copysignl                                                       
0002362b  dhcpBuildDecline                                                
00026e99  dhcpBuildDiscover                                               
00022d15  dhcpBuildOptions                                                
0001e861  dhcpBuildRequest                                                
00020f99  dhcpDecodeType                                                  
00026a39  dhcpOptionsClear                                                
0001937d  dhcpPacketProcess                                               
00027df7  dhcpPacketReceive                                               
0002740d  dhcpPacketSend                                                  
0002931d  dhcpSocketClose                                                 
0001afb1  dhcpSocketOpen                                                  
0001b249  dhcpState                                                       
0001bea5  dhcpVerifyMessage                                               
0000e5cd  execPayload                                                     
0001f7d9  fdClose                                                         
00025b03  fdCloseSession                                                  
00028baf  fdError                                                         
00020609  fdOpenSession                                                   
0000fa75  fdPoll                                                          
00014405  fdSelect                                                        
00029335  fdint_clearevent                                                
000294e3  fdint_freefdt                                                   
00028fcb  fdint_getfdt                                                    
0002439b  fdint_lockfd                                                    
0002743d  fdint_setevent                                                  
00029ec5  fdint_setinvalid                                                
00029e11  fdint_signalevent                                               
00029e1b  fdint_signaltimeout                                             
000263c1  fdint_unlockfd                                                  
00026a71  fdint_waitevent                                                 
000288dd  fdsetTestEntry                                                  
000200cd  fflush                                                          
0002746d  finddevice                                                      
00019a71  floor                                                           
00019a71  floorl                                                          
000183b1  fputs                                                           
00028fe5  free                                                            
00022321  frexp                                                           
00022321  frexpl                                                          
00022385  fseek                                                           
0002a7c0  gateSwi0                                                        
0002a7c4  gateSwi1                                                        
0002a7c8  gateSwi2                                                        
0002a7cc  gateSwi3                                                        
0002a7d0  gateSwi4                                                        
0002a7d4  gateSwi5                                                        
0002a7d8  gateSwi6                                                        
0002a7e4  gateSwi7                                                        
00023aa3  getNextInp                                                      
00021009  getaddrinfo                                                     
00025809  getdevice                                                       
000296c1  gpioButtonSw1Callback                                           
000296d5  gpioButtonSw2Callback                                           
2003f868  gpioCallbackFunctions                                           
2003f888  gpioPinConfigs                                                  
0002a77c  heap0                                                           
0000f591  helpLookUp                                                      
000298c3  inet_addr                                                       
00019481  inet_aton                                                       
0000c24d  initDrivers                                                     
0001ba9d  initMsg                                                         
00007395  initProgram                                                     
00029a09  isdigit                                                         
00029a19  isprint                                                         
00029a29  isspace                                                         
00018909  ldexp                                                           
00018909  ldexpl                                                          
0002934d  list_add                                                        
00026695  list_get_head                                                   
0002674d  list_get_next                                                   
00028bcd  list_remove                                                     
0002749d  list_remove_node                                                
00019b69  llEnter                                                         
00020681  llExit                                                          
000103bb  llSerialService                                                 
00029cad  llTimerGetStartTime                                             
00021831  llTimerGetTime                                                  
00020c79  llTimerTick                                                     
00028055  lseek                                                           
00028beb  main                                                            
2003fbb4  main_func_sp                                                    
00027829  malloc                                                          
00028dcd  memccpy                                                         
0002891d  memchr                                                          
0001de85  memcpy                                                          
0002807d  memmove                                                         
0002033d  memset                                                          
000138f5  mmAlloc                                                         
00021079  mmBulkAlloc                                                     
00020149  mmBulkFree                                                      
00024437  mmCopy                                                          
0001f85d  mmFree                                                          
0002477d  mmZeroInit                                                      
0001500d  msgAbout                                                        
00000041  msgError                                                        
0000e03d  msgHelp                                                         
000223e9  msgHelpAbout                                                    
00019171  msgHelpAudio                                                    
00012eb9  msgHelpCallback                                                 
00024f11  msgHelpClear                                                    
000088a5  msgHelpConditional                                              
0000a911  msgHelpDial                                                     
0001c1bd  msgHelpError                                                    
000097dd  msgHelpGPIO                                                     
0001ce4d  msgHelpHelp                                                     
0001623d  msgHelpMemr                                                     
0000da8d  msgHelpNETUDP                                                   
0002244d  msgHelpPrint                                                    
00007bc5  msgHelpReg                                                      
000233a5  msgHelpRem                                                      
0000e889  msgHelpScript                                                   
0000c575  msgHelpSine                                                     
00011265  msgHelpStream                                                   
0000bb7d  msgHelpTicker                                                   
00011059  msgHelpTimer                                                    
000140ed  msgHelpUART7                                                    
0001b4d5  msgHelpVoice                                                    
00026659  msgPrint                                                        
0000f089  netIPAddrHook                                                   
2003e74c  nimu_mcb                                                        
2003eaf0  parmbuf                                                         
000127a1  parseNETUDP                                                     
2003f8a8  pstrMsgName                                                     
2003fb1c  ptTimeFirst                                                     
00028531  pthread_attr_init                                               
00029b89  pthread_attr_setdetachstate                                     
000296e9  pthread_attr_setschedparam                                      
00029e79  pthread_attr_setstacksize                                       
000218a1  pthread_cancel                                                  
0001a031  pthread_create                                                  
00021ec9  pthread_exit                                                    
2003eb68  raweth_pcb                                                      
0000c891  receiveFunction                                                 
000294f9  recvfrom                                                        
00027c51  remove                                                          
0001c281  round                                                           
0001c281  roundl                                                          
00012b35  runAudio                                                        
0000ff31  runCallback                                                     
00026105  runClear                                                        
00008291  runConditional                                                  
00006b55  runDial                                                         
00010e49  runGPIO                                                         
000174f5  runMemr                                                         
000184c5  runNETUDP                                                       
0000402d  runRegister                                                     
0001322b  runRem                                                          
0000cbad  runScript                                                       
0000e30d  runSine                                                         
0000dd65  runStream                                                       
0000a529  runTicker                                                       
0000acf9  runTimer                                                        
0001f091  runUART7                                                        
00011469  runVoice                                                        
00018909  scalbn                                                          
00018909  scalbnl                                                         
0002a79c  sem0                                                            
0002a7a0  sem1                                                            
0002a7a4  sem2                                                            
0002a7a8  sem3                                                            
0002a7dc  sem4                                                            
0002a7e0  sem5                                                            
00027e21  sem_init                                                        
00029e29  sem_post                                                        
00029b99  sem_wait                                                        
00028fff  sendto                                                          
0001b5ad  serviceReport                                                   
00027ac5  setsockopt                                                      
0001b16d  setvbuf                                                         
0002a1b0  sinLUT                                                          
00024815  snprintf                                                        
0002950f  socket                                                          
0002a9ec  spiMSP432E4DMAHWAttrs                                           
2003e848  spiMSP432E4DMAObjects                                           
00026145  sprintf                                                         
00026ae1  sscanf                                                          
2003ea50  stkEvent                                                        
00028c09  strcat                                                          
00029525  strchr                                                          
0002937d  strcmp                                                          
000296fd  strcpy                                                          
00026f35  stricmp                                                         
00029711  strlen                                                          
00027af1  strncmp                                                         
0001ebb9  strncmpi                                                        
00026bf3  strncpy                                                         
00029395  strrchr                                                         
00026f69  strstr                                                          
0000a0c9  strtod                                                          
00017625  strtol                                                          
0000a0c9  strtold                                                         
00012225  strtoll                                                         
00018a19  strtoul                                                         
00015e35  strtoull                                                        
0002a7ac  swi0                                                            
0002a7b0  swi1                                                            
0002a7b4  swi2                                                            
0002a7b8  swi3                                                            
0002a7bc  swi4                                                            
0002a780  task0                                                           
0002a784  task1                                                           
0002a788  task2                                                           
0002a78c  task3                                                           
0002a790  task4                                                           
0002a794  task5                                                           
0002a798  task6                                                           
000155cf  taskAAA                                                         
00015a11  taskADCStream                                                   
000158a7  taskNETUDP                                                      
0002190d  taskPayload                                                     
0000b7f9  taskUART0Read                                                   
0001c87d  taskUART0Write                                                  
0002399d  taskUART7Read                                                   
2003fb18  tcp_iss                                                         
2003f944  ti_ndk_config_Global_Id2Size                                    
0002aec8  ti_ndk_config_Global_largest                                    
0002aecc  ti_ndk_config_Global_numFrameBuf                                
20035d08  ti_ndk_config_Global_pBufMem                                    
20039908  ti_ndk_config_Global_pHdrMem                                    
20031460  ti_ndk_config_Global_pit                                        
20031508  ti_ndk_config_Global_pitBuffer                                  
0002aec0  ti_ndk_config_Global_rawPageCount                               
0002aebc  ti_ndk_config_Global_rawPageSize                                
0002aed0  ti_ndk_config_Global_sizeFrameBuf                               
0002aec4  ti_ndk_config_Global_smallest                                   
00024fa1  ti_ndk_config_Global_startupFxn                                 
2003e8f4  ti_ndk_socket_fdtable                                           
2003fb28  ti_ndk_socket_max_fd                                            
00025891  ti_net_SlNet_initConfig                                         
2003f844  ti_sysbios_BIOS_Module__state__V                                
00027b49  ti_sysbios_BIOS_RtsGateProxy_Handle__label__S                   
0002752d  ti_sysbios_BIOS_RtsGateProxy_enter__E                           
00027a3d  ti_sysbios_BIOS_RtsGateProxy_leave__E                           
00029f29  ti_sysbios_BIOS_RtsGateProxy_query__E                           
000274cd  ti_sysbios_BIOS_atExitFunc__I                                   
0002953b  ti_sysbios_BIOS_exitFunc__I                                     
00029a49  ti_sysbios_BIOS_getCpuFreq__E                                   
00029cb9  ti_sysbios_BIOS_getThreadType__E                                
00029f59  ti_sysbios_BIOS_linkedWithIncorrectBootLibrary__E               
000173bf  ti_sysbios_BIOS_nullFunc__I                                     
00028579  ti_sysbios_BIOS_registerRTSLock__I                              
0002859d  ti_sysbios_BIOS_removeRTSLock__I                                
0002895d  ti_sysbios_BIOS_rtsLock__I                                      
000293ad  ti_sysbios_BIOS_rtsUnlock__I                                    
00029a59  ti_sysbios_BIOS_setThreadType__E                                
000274fd  ti_sysbios_BIOS_startFunc__I                                    
00029a69  ti_sysbios_BIOS_start__E                                        
2003fa14  ti_sysbios_family_arm_lm4_Seconds_Module__state__V              
000210e9  ti_sysbios_family_arm_lm4_Seconds_getTime__E                    
2003f688  ti_sysbios_family_arm_lm4_Timer_Module_State_0_device__A        
2003f8c8  ti_sysbios_family_arm_lm4_Timer_Module_State_0_handles__A       
000293c5  ti_sysbios_family_arm_lm4_Timer_Module__startupDone__F          
000293c5  ti_sysbios_family_arm_lm4_Timer_Module__startupDone__S          
2003faa0  ti_sysbios_family_arm_lm4_Timer_Module__state__V                
00022519  ti_sysbios_family_arm_lm4_Timer_Module_startup__E               
2003f6c8  ti_sysbios_family_arm_lm4_Timer_Object__table__V                
0002b064  ti_sysbios_family_arm_lm4_Timer_enableFunc__C                   
00024fe9  ti_sysbios_family_arm_lm4_Timer_enableTimers__I                 
0001d119  ti_sysbios_family_arm_lm4_Timer_enableTiva__I                   
00029cc9  ti_sysbios_family_arm_lm4_Timer_getMaxTicks__E                  
00023cf9  ti_sysbios_family_arm_lm4_Timer_initDevice__I                   
000258d9  ti_sysbios_family_arm_lm4_Timer_isrStub__E                      
00029e89  ti_sysbios_family_arm_lm4_Timer_masterDisable__I                
0002811d  ti_sysbios_family_arm_lm4_Timer_masterEnable__I                 
0002b068  ti_sysbios_family_arm_lm4_Timer_numTimerDevices__C              
00018d49  ti_sysbios_family_arm_lm4_Timer_start__E                        
0002b06c  ti_sysbios_family_arm_lm4_Timer_startupNeeded__C                
00026189  ti_sysbios_family_arm_lm4_Timer_startup__E                      
00027531  ti_sysbios_family_arm_lm4_Timer_stop__E                         
00028799  ti_sysbios_family_arm_lm4_Timer_write__I                        
0002b070  ti_sysbios_family_arm_m3_Hwi_E_alreadyDefined__C                
0002b074  ti_sysbios_family_arm_m3_Hwi_E_badIntNum__C                     
00026699  ti_sysbios_family_arm_m3_Hwi_Instance_finalize__E               
0001cc29  ti_sysbios_family_arm_m3_Hwi_Instance_init__E                   
2003fbf8  ti_sysbios_family_arm_m3_Hwi_Module_State_0_excActive__A        
2003fbd8  ti_sysbios_family_arm_m3_Hwi_Module_State_0_excContext__A       
2003fbdc  ti_sysbios_family_arm_m3_Hwi_Module_State_0_excStack__A         
0002a3b2  ti_sysbios_family_arm_m3_Hwi_Module__id__C                      
2003fb30  ti_sysbios_family_arm_m3_Hwi_Module__root__V                    
000293dd  ti_sysbios_family_arm_m3_Hwi_Module__startupDone__F             
000293dd  ti_sysbios_family_arm_m3_Hwi_Module__startupDone__S             
2003f73c  ti_sysbios_family_arm_m3_Hwi_Module__state__V                   
000241c1  ti_sysbios_family_arm_m3_Hwi_Module_startup__E                  
0002b078  ti_sysbios_family_arm_m3_Hwi_NUM_INTERRUPTS__C                  
0002acac  ti_sysbios_family_arm_m3_Hwi_Object__DESC__C                    
0002aa1c  ti_sysbios_family_arm_m3_Hwi_Object__PARAMS__C                  
0002b07c  ti_sysbios_family_arm_m3_Hwi_Object__count__C                   
0002897d  ti_sysbios_family_arm_m3_Hwi_Object__delete__S                  
00029725  ti_sysbios_family_arm_m3_Hwi_Object__get__S                     
2003f994  ti_sysbios_family_arm_m3_Hwi_Object__table__V                   
00029cd5  ti_sysbios_family_arm_m3_Hwi_Params__init__S                    
0002b080  ti_sysbios_family_arm_m3_Hwi_ccr__C                             
000289a1  ti_sysbios_family_arm_m3_Hwi_clearInterrupt__E                  
00023d4d  ti_sysbios_family_arm_m3_Hwi_create                             
0002820d  ti_sysbios_family_arm_m3_Hwi_delete                             
00029ce1  ti_sysbios_family_arm_m3_Hwi_disableFxn__E                      
00025031  ti_sysbios_family_arm_m3_Hwi_disableInterrupt__E                
00022581  ti_sysbios_family_arm_m3_Hwi_dispatchC__I                       
2003dc00  ti_sysbios_family_arm_m3_Hwi_dispatchTable                      
0001a121  ti_sysbios_family_arm_m3_Hwi_dispatch__I                        
00029e91  ti_sysbios_family_arm_m3_Hwi_doSwiRestore__I                    
00029ed1  ti_sysbios_family_arm_m3_Hwi_doTaskRestore__I                   
00025079  ti_sysbios_family_arm_m3_Hwi_enableInterrupt__E                 
000280f5  ti_sysbios_family_arm_m3_Hwi_excHandlerAsm__I                   
0002b084  ti_sysbios_family_arm_m3_Hwi_excHandlerFunc__C                  
00028de9  ti_sysbios_family_arm_m3_Hwi_excHandler__I                      
00025921  ti_sysbios_family_arm_m3_Hwi_getStackInfo__E                    
0001e469  ti_sysbios_family_arm_m3_Hwi_initNVIC__E                        
000239f5  ti_sysbios_family_arm_m3_Hwi_initStacks__E                      
0001a1f5  ti_sysbios_family_arm_m3_Hwi_interruptsAreDisabledButShouldNotBe
0002b088  ti_sysbios_family_arm_m3_Hwi_nullIsrFunc__C                     
e000e000  ti_sysbios_family_arm_m3_Hwi_nvic                               
000281e7  ti_sysbios_family_arm_m3_Hwi_pendSV__I                          
0001f8e1  ti_sysbios_family_arm_m3_Hwi_postInit__I                        
0002b08c  ti_sysbios_family_arm_m3_Hwi_priGroup__C                        
20000000  ti_sysbios_family_arm_m3_Hwi_ramVectors                         
00000000  ti_sysbios_family_arm_m3_Hwi_resetVectors                       
00029ed9  ti_sysbios_family_arm_m3_Hwi_restoreFxn__E                      
0002820b  ti_sysbios_family_arm_m3_Hwi_return                             
00029e99  ti_sysbios_family_arm_m3_Hwi_startup__E                         
00029739  ti_sysbios_family_arm_m3_Hwi_switchFromBootStack__E             
0002852d  ti_sysbios_family_arm_m3_TaskSupport_Module__startupDone__S     
0001ec45  ti_sysbios_family_arm_m3_TaskSupport_buildTaskStack             
00029cf1  ti_sysbios_family_arm_m3_TaskSupport_getStackAlignment__E       
00029a79  ti_sysbios_family_arm_m3_TaskSupport_glue                       
0002b090  ti_sysbios_family_arm_m3_TaskSupport_stackAlignment__C          
00027561  ti_sysbios_family_arm_m3_TaskSupport_start__E                   
000293f5  ti_sysbios_family_arm_m3_TaskSupport_swap__E                    
00029929  ti_sysbios_family_arm_msp432e4_init_Boot_init__I                
0000ede9  ti_sysbios_family_arm_msp432e4_init_Boot_sysCtlClockFreqSetI__I 
0000ede9  ti_sysbios_family_arm_msp432e4_init_Boot_sysCtlClockFreqSet__E  
00028c27  ti_sysbios_family_xxx_Hwi_switchAndRunFunc                      
00027b1d  ti_sysbios_gates_GateHwi_Handle__label__S                       
00029f61  ti_sysbios_gates_GateHwi_Instance_init__E                       
0002ab14  ti_sysbios_gates_GateHwi_Module__FXNS__C                        
2003fb38  ti_sysbios_gates_GateHwi_Module__root__V                        
0002accc  ti_sysbios_gates_GateHwi_Object__DESC__C                        
0002aed4  ti_sysbios_gates_GateHwi_Object__PARAMS__C                      
00027591  ti_sysbios_gates_GateHwi_Object__create__S                      
000289c1  ti_sysbios_gates_GateHwi_Object__delete__S                      
2003fbe0  ti_sysbios_gates_GateHwi_Object__table__V                       
00029d01  ti_sysbios_gates_GateHwi_enter__E                               
00029ee1  ti_sysbios_gates_GateHwi_leave__E                               
00029f21  ti_sysbios_gates_GateHwi_query__E                               
00027b49  ti_sysbios_gates_GateMutex_Handle__label__S                     
0002b094  ti_sysbios_gates_GateMutex_Instance_State_sem__O                
00029a89  ti_sysbios_gates_GateMutex_Instance_finalize__E                 
00028e09  ti_sysbios_gates_GateMutex_Instance_init__E                     
0002ab38  ti_sysbios_gates_GateMutex_Module__FXNS__C                      
2003fb40  ti_sysbios_gates_GateMutex_Module__root__V                      
0002acec  ti_sysbios_gates_GateMutex_Object__DESC__C                      
0002aeec  ti_sysbios_gates_GateMutex_Object__PARAMS__C                    
000275c1  ti_sysbios_gates_GateMutex_Object__create__S                    
000285c1  ti_sysbios_gates_GateMutex_Object__delete__S                    
2003f4d0  ti_sysbios_gates_GateMutex_Object__table__V                     
000275f1  ti_sysbios_gates_GateMutex_enter__E                             
00029411  ti_sysbios_gates_GateMutex_leave__E                             
00029f29  ti_sysbios_gates_GateMutex_query__E                             
00027b75  ti_sysbios_gates_GateSwi_Handle__label__S                       
00029f69  ti_sysbios_gates_GateSwi_Instance_init__E                       
0002ab5c  ti_sysbios_gates_GateSwi_Module__FXNS__C                        
2003fb48  ti_sysbios_gates_GateSwi_Module__root__V                        
0002ad0c  ti_sysbios_gates_GateSwi_Object__DESC__C                        
0002af04  ti_sysbios_gates_GateSwi_Object__PARAMS__C                      
00027621  ti_sysbios_gates_GateSwi_Object__create__S                      
000289e1  ti_sysbios_gates_GateSwi_Object__delete__S                      
2003f8e8  ti_sysbios_gates_GateSwi_Object__table__V                       
00029a99  ti_sysbios_gates_GateSwi_enter__E                               
00029ee9  ti_sysbios_gates_GateSwi_leave__E                               
00029d11  ti_sysbios_gates_GateSwi_query__E                               
000293dd  ti_sysbios_hal_Hwi_HwiProxy_Module__startupDone__S              
00029cd5  ti_sysbios_hal_Hwi_HwiProxy_Params__init__S                     
000289a1  ti_sysbios_hal_Hwi_HwiProxy_clearInterrupt__E                   
00025031  ti_sysbios_hal_Hwi_HwiProxy_disableInterrupt__E                 
00029ce1  ti_sysbios_hal_Hwi_HwiProxy_disable__E                          
00025079  ti_sysbios_hal_Hwi_HwiProxy_enableInterrupt__E                  
00025921  ti_sysbios_hal_Hwi_HwiProxy_getStackInfo__E                     
00029ed9  ti_sysbios_hal_Hwi_HwiProxy_restore__E                          
00029e99  ti_sysbios_hal_Hwi_HwiProxy_startup__E                          
00029739  ti_sysbios_hal_Hwi_HwiProxy_switchFromBootStack__E              
000298d9  ti_sysbios_hal_Hwi_Module_startup__E                            
000289a1  ti_sysbios_hal_Hwi_clearInterrupt__E                            
00025031  ti_sysbios_hal_Hwi_disableInterrupt__E                          
00025079  ti_sysbios_hal_Hwi_enableInterrupt__E                           
00025921  ti_sysbios_hal_Hwi_getStackInfo__E                              
00027131  ti_sysbios_hal_Hwi_initStack                                    
00029e99  ti_sysbios_hal_Hwi_startup__E                                   
00029739  ti_sysbios_hal_Hwi_switchFromBootStack__E                       
000210e9  ti_sysbios_hal_Seconds_SecondsProxy_getTime__E                  
000210e9  ti_sysbios_hal_Seconds_getTime__E                               
0002b098  ti_sysbios_heaps_HeapMem_E_memory__C                            
00027ba1  ti_sysbios_heaps_HeapMem_Handle__label__S                       
000261c9  ti_sysbios_heaps_HeapMem_Instance_init__E                       
00027b49  ti_sysbios_heaps_HeapMem_Module_GateProxy_Handle__label__S      
000285e5  ti_sysbios_heaps_HeapMem_Module_GateProxy_enter__E              
00028655  ti_sysbios_heaps_HeapMem_Module_GateProxy_leave__E              
00029f29  ti_sysbios_heaps_HeapMem_Module_GateProxy_query__E              
0002aaa4  ti_sysbios_heaps_HeapMem_Module__FXNS__C                        
0002b09c  ti_sysbios_heaps_HeapMem_Module__gateObj__C                     
0002a9ae  ti_sysbios_heaps_HeapMem_Module__id__C                          
2003fb50  ti_sysbios_heaps_HeapMem_Module__root__V                        
0002ad2c  ti_sysbios_heaps_HeapMem_Object__DESC__C                        
0002ab80  ti_sysbios_heaps_HeapMem_Object__PARAMS__C                      
0002b0a0  ti_sysbios_heaps_HeapMem_Object__count__C                       
00027651  ti_sysbios_heaps_HeapMem_Object__create__S                      
00028a01  ti_sysbios_heaps_HeapMem_Object__delete__S                      
0002974d  ti_sysbios_heaps_HeapMem_Object__get__S                         
2003f9ac  ti_sysbios_heaps_HeapMem_Object__table__V                       
0001bb71  ti_sysbios_heaps_HeapMem_alloc__E                               
0001f969  ti_sysbios_heaps_HeapMem_free__E                                
000248b1  ti_sysbios_heaps_HeapMem_getStats__E                            
00021159  ti_sysbios_heaps_HeapMem_initPrimary__I                         
00029ef1  ti_sysbios_heaps_HeapMem_isBlocking__E                          
0002b0a4  ti_sysbios_heaps_HeapMem_primaryHeapBaseAddr__C                 
0002b0a8  ti_sysbios_heaps_HeapMem_primaryHeapEndAddr__C                  
0002b0ac  ti_sysbios_heaps_HeapMem_reqAlign__C                            
00028e29  ti_sysbios_knl_Clock_Instance_finalize__E                       
00024211  ti_sysbios_knl_Clock_Instance_init__E                           
0002b0b0  ti_sysbios_knl_Clock_Module_State_clockQ__O                     
2003fb58  ti_sysbios_knl_Clock_Module__root__V                            
2003f7cc  ti_sysbios_knl_Clock_Module__state__V                           
000285e9  ti_sysbios_knl_Clock_Module_startup__E                          
0002ad4c  ti_sysbios_knl_Clock_Object__DESC__C                            
0002aba4  ti_sysbios_knl_Clock_Object__PARAMS__C                          
0002860d  ti_sysbios_knl_Clock_Object__delete__S                          
00029d1d  ti_sysbios_knl_Clock_Params__init__S                            
000293c5  ti_sysbios_knl_Clock_TimerProxy_Module__startupDone__S          
000286c5  ti_sysbios_knl_Clock_TimerProxy_getMaxTicks__E                  
00026189  ti_sysbios_knl_Clock_TimerProxy_startup__E                      
00028121  ti_sysbios_knl_Clock_addI__E                                    
00027681  ti_sysbios_knl_Clock_construct                                  
000266d5  ti_sysbios_knl_Clock_create                                     
0002899d  ti_sysbios_knl_Clock_delete                                     
00028a21  ti_sysbios_knl_Clock_destruct                                   
00027bcd  ti_sysbios_knl_Clock_doTick__I                                  
00027bf9  ti_sysbios_knl_Clock_getTimeout__E                              
00029f71  ti_sysbios_knl_Clock_logTick__E                                 
00029f31  ti_sysbios_knl_Clock_setTimeout__E                              
00028631  ti_sysbios_knl_Clock_start__E                                   
00029ef9  ti_sysbios_knl_Clock_stop__E                                    
0002b0b4  ti_sysbios_knl_Clock_tickPeriod__C                              
0001fb71  ti_sysbios_knl_Clock_workFunc__E                                
0002afd4  ti_sysbios_knl_Idle_funcList__A                                 
0002b024  ti_sysbios_knl_Idle_funcList__C                                 
00029ba9  ti_sysbios_knl_Idle_loop__E                                     
00028a41  ti_sysbios_knl_Idle_run__E                                      
0002b0b8  ti_sysbios_knl_Mailbox_Instance_State_freeQue__O                
000250c1  ti_sysbios_knl_Mailbox_Module_startup__E                        
0002b0bc  ti_sysbios_knl_Mailbox_Object__count__C                         
00029aa9  ti_sysbios_knl_Mailbox_Object__get__S                           
0002b0c0  ti_sysbios_knl_Mailbox_maxTypeAlign__C                          
00025969  ti_sysbios_knl_Mailbox_postInit__I                              
00029f01  ti_sysbios_knl_Queue_Instance_init__E                           
2003fb60  ti_sysbios_knl_Queue_Module__root__V                            
0002ad6c  ti_sysbios_knl_Queue_Object__DESC__C                            
0002af1c  ti_sysbios_knl_Queue_Object__PARAMS__C                          
00029d29  ti_sysbios_knl_Queue_Object__get__S                             
00027c25  ti_sysbios_knl_Queue_construct                                  
00028e45  ti_sysbios_knl_Queue_destruct                                   
00029bb9  ti_sysbios_knl_Queue_empty__E                                   
00028e61  ti_sysbios_knl_Queue_put__E                                     
0002b0c4  ti_sysbios_knl_Semaphore_Instance_State_pendQ__O                
00029ab9  ti_sysbios_knl_Semaphore_Instance_finalize__E                   
00028659  ti_sysbios_knl_Semaphore_Instance_init__E                       
2003fb68  ti_sysbios_knl_Semaphore_Module__root__V                        
0002ad8c  ti_sysbios_knl_Semaphore_Object__DESC__C                        
0002abc8  ti_sysbios_knl_Semaphore_Object__PARAMS__C                      
0002867d  ti_sysbios_knl_Semaphore_Object__delete__S                      
2003f400  ti_sysbios_knl_Semaphore_Object__table__V                       
00029d35  ti_sysbios_knl_Semaphore_Params__init__S                        
000276b1  ti_sysbios_knl_Semaphore_construct                              
00026f9d  ti_sysbios_knl_Semaphore_create                                 
00028e05  ti_sysbios_knl_Semaphore_delete                                 
00028a61  ti_sysbios_knl_Semaphore_destruct                               
00029f39  ti_sysbios_knl_Semaphore_getCount__E                            
000276e1  ti_sysbios_knl_Semaphore_pendTimeout__I                         
00017759  ti_sysbios_knl_Semaphore_pend__E                                
00022d79  ti_sysbios_knl_Semaphore_post__E                                
000298f1  ti_sysbios_knl_Semaphore_reset__E                               
2003f288  ti_sysbios_knl_Swi_Module_State_0_readyQ__A                     
2003f960  ti_sysbios_knl_Swi_Module__state__V                             
00028149  ti_sysbios_knl_Swi_Module_startup__E                            
0002b0c8  ti_sysbios_knl_Swi_Object__count__C                             
00029761  ti_sysbios_knl_Swi_Object__get__S                               
2003ef38  ti_sysbios_knl_Swi_Object__table__V                             
00029ac9  ti_sysbios_knl_Swi_disable__E                                   
000259b1  ti_sysbios_knl_Swi_post__E                                      
00021979  ti_sysbios_knl_Swi_restoreHwi__E                                
00026711  ti_sysbios_knl_Swi_restore__E                                   
00024901  ti_sysbios_knl_Swi_runLoop__I                                   
00022dd9  ti_sysbios_knl_Swi_run__I                                       
00023401  ti_sysbios_knl_Swi_schedule__I                                  
00029f09  ti_sysbios_knl_Swi_startup__E                                   
0002b0cc  ti_sysbios_knl_Task_E_deleteNotAllowed__C                       
2003eaf8  ti_sysbios_knl_Task_Instance_State_0_hookEnv__A                 
20039c78  ti_sysbios_knl_Task_Instance_State_0_stack__A                   
2003eb00  ti_sysbios_knl_Task_Instance_State_1_hookEnv__A                 
2003a478  ti_sysbios_knl_Task_Instance_State_1_stack__A                   
2003eb08  ti_sysbios_knl_Task_Instance_State_2_hookEnv__A                 
2003ac78  ti_sysbios_knl_Task_Instance_State_2_stack__A                   
2003eb10  ti_sysbios_knl_Task_Instance_State_3_hookEnv__A                 
2003b478  ti_sysbios_knl_Task_Instance_State_3_stack__A                   
2003eb18  ti_sysbios_knl_Task_Instance_State_4_hookEnv__A                 
2003bc78  ti_sysbios_knl_Task_Instance_State_4_stack__A                   
2003eb20  ti_sysbios_knl_Task_Instance_State_5_hookEnv__A                 
2003c478  ti_sysbios_knl_Task_Instance_State_5_stack__A                   
2003eb28  ti_sysbios_knl_Task_Instance_State_6_hookEnv__A                 
2003cc78  ti_sysbios_knl_Task_Instance_State_6_stack__A                   
2003eb30  ti_sysbios_knl_Task_Instance_State_7_hookEnv__A                 
2003d478  ti_sysbios_knl_Task_Instance_State_7_stack__A                   
000160e9  ti_sysbios_knl_Task_Instance_finalize__E                        
0001a979  ti_sysbios_knl_Task_Instance_init__E                            
2003fbe4  ti_sysbios_knl_Task_Module_State_0_idleTask__A                  
2003f308  ti_sysbios_knl_Task_Module_State_0_readyQ__A                    
0002b0d0  ti_sysbios_knl_Task_Module_State_inactiveQ__O                   
0002b0d4  ti_sysbios_knl_Task_Module_State_terminatedQ__O                 
0002b062  ti_sysbios_knl_Task_Module__id__C                               
2003fb70  ti_sysbios_knl_Task_Module__root__V                             
2003f5c4  ti_sysbios_knl_Task_Module__state__V                            
0001e981  ti_sysbios_knl_Task_Module_startup__E                           
0002adac  ti_sysbios_knl_Task_Object__DESC__C                             
0002a9b0  ti_sysbios_knl_Task_Object__PARAMS__C                           
0002b0d8  ti_sysbios_knl_Task_Object__count__C                            
00028a81  ti_sysbios_knl_Task_Object__delete__S                           
00029775  ti_sysbios_knl_Task_Object__first__S                            
00029ad9  ti_sysbios_knl_Task_Object__get__S                              
0002b0dc  ti_sysbios_knl_Task_Object__heap__C                             
00029789  ti_sysbios_knl_Task_Object__next__S                             
2003eb6c  ti_sysbios_knl_Task_Object__table__V                            
00029d41  ti_sysbios_knl_Task_Params__init__S                             
0002852d  ti_sysbios_knl_Task_SupportProxy_Module__startupDone__S         
00029cf1  ti_sysbios_knl_Task_SupportProxy_getStackAlignment__E           
00027561  ti_sysbios_knl_Task_SupportProxy_start__E                       
000293f5  ti_sysbios_knl_Task_SupportProxy_swap__E                        
0002b0e0  ti_sysbios_knl_Task_allBlockedFunc__C                           
00024951  ti_sysbios_knl_Task_allBlockedFunction__I                       
00024261  ti_sysbios_knl_Task_create                                      
0002b0e4  ti_sysbios_knl_Task_defaultStackHeap__C                         
0002b0e8  ti_sysbios_knl_Task_defaultStackSize__C                         
00028e25  ti_sysbios_knl_Task_delete                                      
00025109  ti_sysbios_knl_Task_deleteTerminatedTasksFunc__I                
00029ae9  ti_sysbios_knl_Task_disable__E                                  
00028e81  ti_sysbios_knl_Task_enter__I                                    
0001c939  ti_sysbios_knl_Task_exit__E                                     
00029ea1  ti_sysbios_knl_Task_getHookContext__E                           
0002aa4c  ti_sysbios_knl_Task_hooks__A                                    
0002b02c  ti_sysbios_knl_Task_hooks__C                                    
0002b0ec  ti_sysbios_knl_Task_numConstructedTasks__C                      
00018b29  ti_sysbios_knl_Task_postInit__I                                 
00026b19  ti_sysbios_knl_Task_processVitalTaskFlag__I                     
000286a1  ti_sysbios_knl_Task_restoreHwi__E                               
00027711  ti_sysbios_knl_Task_restore__E                                  
000249a1  ti_sysbios_knl_Task_schedule__I                                 
00029d51  ti_sysbios_knl_Task_self__E                                     
00029ea9  ti_sysbios_knl_Task_setHookContext__E                           
0001d7b9  ti_sysbios_knl_Task_setPri__E                                   
00029429  ti_sysbios_knl_Task_sleepTimeout__I                             
0001c349  ti_sysbios_knl_Task_sleep__E                                    
00023461  ti_sysbios_knl_Task_startCore__E                                
00029f41  ti_sysbios_knl_Task_startup__E                                  
00029401  ti_sysbios_knl_Task_swapReturn                                  
00027741  ti_sysbios_knl_Task_unblockI__E                                 
00026209  ti_sysbios_knl_Task_yield__E                                    
2003fbe8  ti_sysbios_rts_ti_ReentSupport_Module__state__V                 
00028ea1  ti_sysbios_rts_ti_ReentSupport_getReent__E                      
00028ea1  ti_sysbios_rts_ti_ReentSupport_getReent__F                      
00029441  ti_sysbios_rts_ti_ReentSupport_getTlsAddr__I                    
00029d61  ti_sysbios_rts_ti_ReentSupport_taskRegHook__I                   
000211c9  timer0Callback                                                  
0001d521  timer0SWI                                                       
0002979d  timer1Callback                                                  
0001aed1  timer1SWI                                                       
0002adcc  timerMSP432E4HWAttrs                                            
2003e6e4  timerMSP432E4Objects                                            
00019c61  timer_create                                                    
00026751  timer_delete                                                    
00023da1  timer_gettime                                                   
0001aa61  timer_settime                                                   
0002a7e8  tiposix_mqGate                                                  
00029af9  tolower                                                         
2003eac8  tpseudo                                                         
00010a1d  transmitFunction                                                
000249ed  uDMAChannelAssign                                               
000225e5  uDMAChannelAttributeDisable                                     
0002678d  uDMAChannelControlSet                                           
00028edd  uDMAChannelDisable                                              
00028ef9  uDMAChannelEnable                                               
00024a39  uDMAChannelModeGet                                              
0001a211  uDMAChannelTransferSet                                          
00029d6d  uDMAControlBaseGet                                              
000297b1  uDMAControlBaseSet                                              
00029d79  uDMAEnable                                                      
00029d85  uDMAErrorStatusClear                                            
00029d91  uDMAErrorStatusGet                                              
00026249  uDMAInit                                                        
2003e060  uartMSP432E4Objects                                             
0002afe0  udmaMSP432E4HWAttrs                                             
2003eb38  udmaMSP432E4Object                                              
00027c51  unlink                                                          
2003ead4  upseudo                                                         
2003e91c  vlan_mcb                                                        
00028171  vsprintf                                                        
00029903  wcslen                                                          
00028199  write                                                           
00000001  xdc_rov_runtime_Mon__checksum                                   
00000001  xdc_rov_runtime_Mon__write                                      
00025151  xdc_runtime_Core_assignParams__I                                
0001f331  xdc_runtime_Core_constructObject__I                             
0001c9f9  xdc_runtime_Core_createObject__I                                
00020cf1  xdc_runtime_Core_deleteObject__I                                
0002b0f0  xdc_runtime_Error_E_memory__C                                   
2003f908  xdc_runtime_Error_IgnoreBlock                                   
00029471  xdc_runtime_Error_init__E                                       
0002b0f4  xdc_runtime_Error_policyFxn__C                                  
000286c9  xdc_runtime_Error_policyMin__E                                  
0002af6f  xdc_runtime_Error_policy__C                                     
0002b0f8  xdc_runtime_IGateProvider_Interface__BASE__C                    
0002b0fc  xdc_runtime_IHeap_Interface__BASE__C                            
0002b100  xdc_runtime_IModule_Interface__BASE__C                          
00027b1d  xdc_runtime_Main_Module_GateProxy_Handle__label__S              
00029f21  xdc_runtime_Main_Module_GateProxy_query__E                      
00027ba1  xdc_runtime_Memory_HeapProxy_Handle__label__S                   
00029e33  xdc_runtime_Memory_HeapProxy_alloc__E                           
00029e3d  xdc_runtime_Memory_HeapProxy_free__E                            
0002b13c  xdc_runtime_Memory_Module__id__C                                
2003fbf0  xdc_runtime_Memory_Module__state__V                             
0001ecd1  xdc_runtime_Memory_alloc__E                                     
0002b104  xdc_runtime_Memory_defaultHeapInstance__C                       
00029b09  xdc_runtime_Memory_free__E                                      
2003fb78  xdc_runtime_Startup_Module__state__V                            
00000001  xdc_runtime_Startup__EXECFXN__C                                 
00000001  xdc_runtime_Startup__RESETFXN__C                                
0002b108  xdc_runtime_Startup_execImpl__C                                 
000234c1  xdc_runtime_Startup_exec__E                                     
00029915  xdc_runtime_Startup_exec__I                                     
0002af90  xdc_runtime_Startup_firstFxns__A                                
0002b034  xdc_runtime_Startup_firstFxns__C                                
0002b03c  xdc_runtime_Startup_lastFxns__C                                 
0002b10c  xdc_runtime_Startup_maxPasses__C                                
00029929  xdc_runtime_Startup_reset__I                                    
00029da1  xdc_runtime_Startup_rtsDone__E                                  
0002afa0  xdc_runtime_Startup_sfxnRts__A                                  
0002b110  xdc_runtime_Startup_sfxnRts__C                                  
0002ae0c  xdc_runtime_Startup_sfxnTab__A                                  
0002b114  xdc_runtime_Startup_sfxnTab__C                                  
00017d21  xdc_runtime_Startup_startMods__I                                
0002b118  xdc_runtime_SysCallback_abortFxn__C                             
00029b19  xdc_runtime_SysCallback_abort__E                                
00029f79  xdc_runtime_SysCallback_defaultAbort                            
00029f81  xdc_runtime_SysCallback_defaultExit                             
00029f89  xdc_runtime_SysCallback_defaultPutch                            
00029f49  xdc_runtime_SysCallback_defaultReady                            
0002b11c  xdc_runtime_SysCallback_exitFxn__C                              
00029b29  xdc_runtime_SysCallback_exit__E                                 
0002b120  xdc_runtime_SysCallback_putchFxn__C                             
00029b39  xdc_runtime_SysCallback_putch__E                                
0002b124  xdc_runtime_SysCallback_readyFxn__C                             
00029b49  xdc_runtime_SysCallback_ready__E                                
00027b1d  xdc_runtime_System_Module_GateProxy_Handle__label__S            
00028e7d  xdc_runtime_System_Module_GateProxy_enter__E                    
00028e9d  xdc_runtime_System_Module_GateProxy_leave__E                    
00029f21  xdc_runtime_System_Module_GateProxy_query__E                    
2003fb80  xdc_runtime_System_Module_State_0_atexitHandlers__A             
0002b128  xdc_runtime_System_Module__gateObj__C                           
2003fb88  xdc_runtime_System_Module__state__V                             
00029f11  xdc_runtime_System_Module_startup__E                            
00029b19  xdc_runtime_System_SupportProxy_abort__E                        
00029b29  xdc_runtime_System_SupportProxy_exit__E                         
00029b39  xdc_runtime_System_SupportProxy_putch__E                        
00029b49  xdc_runtime_System_SupportProxy_ready__E                        
0002b12c  xdc_runtime_System_abortFxn__C                                  
00029f91  xdc_runtime_System_abortSpin__E                                 
00026185  xdc_runtime_System_abortStd__E                                  
000259f9  xdc_runtime_System_atexit__E                                    
00009c61  xdc_runtime_System_doPrint__I                                   
0002b130  xdc_runtime_System_exitFxn__C                                   
00029f99  xdc_runtime_System_exitSpin__E                                  
00029489  xdc_runtime_System_exit__E                                      
0002b134  xdc_runtime_System_extendFxn__C                                 
00020861  xdc_runtime_System_formatNum__I                                 
0002b138  xdc_runtime_System_maxAtexitHandlers__C                         
0001458d  xdc_runtime_System_printfExtend__I                              
00029019  xdc_runtime_System_printf__E                                    
00029f51  xdc_runtime_System_printf_va__F                                 
000267c9  xdc_runtime_System_processAtExit__E                             
00027169  xdc_runtime_System_putchar__I                                   
00028211  xdc_runtime_System_vprintf__E                                   


GLOBAL SYMBOLS: SORTED BY Symbol Address 

address   name                                                            
-------   ----                                                            
00000000  __ASM__                                                         
00000000  ti_sysbios_family_arm_m3_Hwi_resetVectors                       
00000001  xdc_rov_runtime_Mon__checksum                                   
00000001  xdc_rov_runtime_Mon__write                                      
00000001  xdc_runtime_Startup__EXECFXN__C                                 
00000001  xdc_runtime_Startup__RESETFXN__C                                
00000041  msgError                                                        
00000085  __ISA__                                                         
00000098  __PLAT__                                                        
000000bb  __TARG__                                                        
000000e1  __TRDR__                                                        
00000400  __STACK_SIZE                                                    
00001fa1  addError                                                        
00003321  TcpInput                                                        
0000402d  runRegister                                                     
00004ce5  __TI_scanfi                                                     
000057f9  __TI_printfi                                                    
00006247  Board_initHook                                                  
00006249  TcpOutput                                                       
00006b55  runDial                                                         
00007395  initProgram                                                     
00007bc5  msgHelpReg                                                      
0000828f  NatMsg                                                          
00008291  runConditional                                                  
000088a5  msgHelpConditional                                              
00008e5f  TimerMSP432E4_init                                              
00008e61  SlNetIfNDK_getSockOpt                                           
00009351  IPTxPacket                                                      
000097dd  msgHelpGPIO                                                     
00009c5f  UARTMSP432E4_init                                               
00009c61  xdc_runtime_System_doPrint__I                                   
0000a0c9  strtod                                                          
0000a0c9  strtold                                                         
0000a529  runTicker                                                       
0000a911  msgHelpDial                                                     
0000acf7  _llSerialServiceCheck                                           
0000acf9  runTimer                                                        
0000b0c1  IPRxPacket                                                      
0000b7f7  _llSerialShutdown                                               
0000b7f9  taskUART0Read                                                   
0000bb7d  msgHelpTicker                                                   
0000befd  SlNetUtil_getAddrInfo                                           
0000c24d  initDrivers                                                     
0000c575  msgHelpSine                                                     
0000c891  receiveFunction                                                 
0000cbad  runScript                                                       
0000d1c3  _llUserLedInit                                                  
0000d1c5  UARTMSP432E4_open                                               
0000d4b5  SlNetIfNDK_setSockOpt                                           
0000da8b  _llUserLedShutdown                                              
0000da8d  msgHelpNETUDP                                                   
0000dd65  runStream                                                       
0000e03d  msgHelp                                                         
0000e30d  runSine                                                         
0000e5cd  execPayload                                                     
0000e889  msgHelpScript                                                   
0000eb39  SockSet                                                         
0000ede5  ADCBufMSP432E4_getResolution                                    
0000ede9  ti_sysbios_family_arm_msp432e4_init_Boot_sysCtlClockFreqSetI__I 
0000ede9  ti_sysbios_family_arm_msp432e4_init_Boot_sysCtlClockFreqSet__E  
0000f089  netIPAddrHook                                                   
0000f31d  ICMPInput                                                       
0000f591  helpLookUp                                                      
0000fa75  fdPoll                                                          
0000fcd3  _nop                                                            
0000fcd5  IPReasm                                                         
0000ff31  runCallback                                                     
00010181  GPIOPadConfigSet                                                
000103bb  llSerialService                                                 
000103bd  UdpInput                                                        
000105ed  NC_NetStart                                                     
00010805  SlNetIfNDK_recvFrom                                             
00010a1d  transmitFunction                                                
00010c35  ADCBufMSP432E4_open                                             
00010e49  runGPIO                                                         
00011059  msgHelpTimer                                                    
00011265  msgHelpStream                                                   
00011469  runVoice                                                        
0001166d  SlNetIfNDK_sendTo                                               
0001186d  SPIMSP432E4DMA_transfer                                         
00011a69  SockGet                                                         
00011c61  SlNetIfNDK_accept                                               
00011e4d  SockRecv                                                        
00012039  DNSGetReply                                                     
00012223  __aeabi_idiv0                                                   
00012223  __aeabi_ldiv0                                                   
00012225  strtoll                                                         
00012401  LLIRxPacket                                                     
000127a1  parseNETUDP                                                     
00012b35  runAudio                                                        
00012eb9  msgHelpCallback                                                 
00013075  __aeabi_dsub                                                    
0001307f  __aeabi_dadd                                                    
0001322b  runRem                                                          
0001322d  SPIMSP432E4DMA_open                                             
000133e1  SockNew                                                         
00013595  LLITxIpPacket                                                   
00013745  UdpOutput                                                       
000138f5  mmAlloc                                                         
00013c29  IGMPInput                                                       
00013dc1  SlNetSock_select                                                
00013f59  DHCPOpen                                                        
000140ed  msgHelpUART7                                                    
0001427d  NtGetPublicHost                                                 
00014405  fdSelect                                                        
0001458d  xdc_runtime_System_printfExtend__I                              
00014715  GPIO_setConfig                                                  
00014899  SlNetIfNDK_getPeerName                                          
00014a1d  SlNetIfNDK_getSockName                                          
00014ba1  EMACMSP432E4_NIMUInit                                           
00014d1d  SlNetIfNDK_recv                                                 
00014e95  TcpGenPacket                                                    
0001500d  msgAbout                                                        
000152f1  RTCReport                                                       
000155cf  taskAAA                                                         
000155d1  SlNetIfNDK_send                                                 
0001573d  SBRead                                                          
000158a7  taskNETUDP                                                      
000158a9  SlNetIfNDK_connect                                              
00015a11  taskADCStream                                                   
00015b75  ICMPGenPacket                                                   
00015cd5  SockConnect                                                     
00015e35  strtoull                                                        
00015f91  NIMUInit                                                        
000160e9  ti_sysbios_knl_Task_Instance_finalize__E                        
0001623d  msgHelpMemr                                                     
000164d5  BindNew                                                         
00016619  SlNetIfNDK_select                                               
0001675d  SockPcbResolve                                                  
000169e1  TcpTimeoutCheck                                                 
00016b21  CfgAddEntry                                                     
00016d99  SlNetIfNDK_ifCreateContext                                      
00016ed5  SockNotify                                                      
00017011  SockSend                                                        
00017289  __aeabi_ddiv                                                    
000173bf  ti_sysbios_BIOS_nullFunc__I                                     
000174f5  runMemr                                                         
00017625  strtol                                                          
00017755  BindGetIF                                                       
00017759  ti_sysbios_knl_Semaphore_pend__E                                
00017889  SPIMSP432E4DMA_transferCancel                                   
00017add  ErrnoUtil_set                                                   
00017bfd  SlNetIfNDK_close                                                
00017d1d  BindGetNext                                                     
00017d21  xdc_runtime_Startup_startMods__I                                
00017f5d  TimerMSP432E4_open                                              
00018075  NIMUIoctl                                                       
00018189  RawInput                                                        
0001829d  SlNetIfNDK_getIPAddr                                            
000183b1  fputs                                                           
000184c5  runNETUDP                                                       
000185d9  NodeTreeFree                                                    
000186e9  RtCreate                                                        
000187f9  RtFind                                                          
00018909  ldexp                                                           
00018909  ldexpl                                                          
00018909  scalbn                                                          
00018909  scalbnl                                                         
00018a19  strtoul                                                         
00018b29  ti_sysbios_knl_Task_postInit__I                                 
00018d45  ClockP_getCpuFreq                                               
00018d49  ti_sysbios_family_arm_lm4_Timer_start__E                        
00018e55  TcpPrSetOption                                                  
00019069  addTicker                                                       
00019171  msgHelpAudio                                                    
0001937d  dhcpPacketProcess                                               
00019481  inet_aton                                                       
00019585  ICMPSendRtAdv                                                   
00019785  __aeabi_dmul                                                    
00019881  ADCBufMSP432E4_close                                            
00019979  SlNetUtil_inetAton                                              
00019a71  floor                                                           
00019a71  floorl                                                          
00019b69  llEnter                                                         
00019c61  timer_create                                                    
00019d59  SockClose                                                       
00019e4d  LLIGenArpPacket                                                 
00019f3d  RawEthSockNew                                                   
0001a02d  ClockP_setTimeout                                               
0001a031  pthread_create                                                  
0001a121  ti_sysbios_family_arm_m3_Hwi_dispatch__I                        
0001a1f5  ti_sysbios_family_arm_m3_Hwi_interruptsAreDisabledButShouldNotBe
0001a211  uDMAChannelTransferSet                                          
0001a301  ADCSequenceStepConfigure                                        
0001a4dd  SlNetIfNDK_socket                                               
0001a5cb  ADCBufMSP432E4_adjustRawValues                                  
0001a5d1  clock_gettime                                                   
0001a6bd  PipeRecv                                                        
0001a979  ti_sysbios_knl_Task_Instance_init__E                            
0001aa61  timer_settime                                                   
0001ab49  SlNetIf_add                                                     
0001ac2d  SockPcbBind                                                     
0001ad11  EMACInit                                                        
0001adf1  TcpTimeoutRexmt                                                 
0001aed1  timer1SWI                                                       
0001afb1  dhcpSocketOpen                                                  
0001b091  SBWrite                                                         
0001b16d  setvbuf                                                         
0001b249  dhcpState                                                       
0001b325  NodeAdd                                                         
0001b3fd  SlNetIfNDK_bind                                                 
0001b4d5  msgHelpVoice                                                    
0001b5ad  serviceReport                                                   
0001b685  SlNetIfNDK_listen                                               
0001b759  NIMUReceivePacket                                               
0001b8fd  SlNetIfNDK_shutdown                                             
0001ba9d  initMsg                                                         
0001bb6d  ClockP_start                                                    
0001bb71  ti_sysbios_heaps_HeapMem_alloc__E                               
0001bc41  RawEthSockGet                                                   
0001bd0d  RawEthSockSet                                                   
0001bea5  dhcpVerifyMessage                                               
0001c1bd  msgHelpError                                                    
0001c281  round                                                           
0001c281  roundl                                                          
0001c345  ClockP_stop                                                     
0001c349  TaskSleep                                                       
0001c349  ti_sysbios_knl_Task_sleep__E                                    
0001c4cd  DNSGetHostByName                                                
0001c58b  UARTMSP432E4_close                                              
0001c705  VLANDeinit                                                      
0001c7c1  addOutMsg                                                       
0001c87d  taskUART0Write                                                  
0001c939  TaskExit                                                        
0001c939  ti_sysbios_knl_Task_exit__E                                     
0001c9f5  HwiP_clearInterrupt                                             
0001c9f9  xdc_runtime_Core_createObject__I                                
0001cb71  _LLITimeoutCheck                                                
0001cc29  ti_sysbios_family_arm_m3_Hwi_Instance_init__E                   
0001cd99  TcpTimeoutKeep                                                  
0001ce4d  msgHelpHelp                                                     
0001cf01  NIMUAddEthernetHeader                                           
0001d119  ti_sysbios_family_arm_lm4_Timer_enableTiva__I                   
0001d275  GPIO_init                                                       
0001d3cd  TaskGetEnv                                                      
0001d479  SockCreatePacket                                                
0001d521  timer0SWI                                                       
0001d5c9  GPIOIntTypeSet                                                  
0001d66d  TaskSetEnv                                                      
0001d711  UART_write_prot_bold                                            
0001d7b5  HwiP_disable                                                    
0001d7b9  ti_sysbios_knl_Task_setPri__E                                   
0001d8fd  IPGetRoute                                                      
0001d99d  __TI_auto_init                                                  
0001da3d  DNSGetHostArrayByName                                           
0001dadb  UARTMSP432E4_readPolling                                        
0001db79  ExecOpen                                                        
0001dc15  SPIMSP432E4DMA_close                                            
0001dcb1  _pthread_removeThreadKeys                                       
0001dd4d  addPayload                                                      
0001de85  __aeabi_memcpy                                                  
0001de85  __aeabi_memcpy4                                                 
0001de85  __aeabi_memcpy8                                                 
0001de85  memcpy                                                          
0001df21  ADCBufMSP432E4_convertCancel                                    
0001dfb9  NC_SystemOpen                                                   
0001e0e9  UARTMSP432E4_write                                              
0001e181  __aeabi_uldivmod                                                
0001e219  CfgExecute                                                      
0001e2ad  CfgRemoveEntry                                                  
0001e341  _mmInit                                                         
0001e469  ti_sysbios_family_arm_m3_Hwi_initNVIC__E                        
0001e4fd  SlNetSock_create                                                
0001e591  IGMPMsg                                                         
0001e6b1  UARTMSP432E4_control                                            
0001e741  addCallback                                                     
0001e861  dhcpBuildRequest                                                
0001e981  ti_sysbios_knl_Task_Module_startup__E                           
0001ea11  DNSResolveQuery                                                 
0001eaa1  IPMsg                                                           
0001eb2d  SysCtlPeripheralReset                                           
0001ebb9  strncmpi                                                        
0001ec45  ti_sysbios_family_arm_m3_TaskSupport_buildTaskStack             
0001ecd1  xdc_runtime_Memory_alloc__E                                     
0001ee71  SockPcbCtlError                                                 
0001eef9  TimerMSP432E4_setPeriod                                         
0001ef81  addScript                                                       
0001f091  runUART7                                                        
0001f119  SockCheck                                                       
0001f225  __aeabi_cdcmpeq                                                 
0001f225  __aeabi_cdcmple                                                 
0001f2ab  __aeabi_cdrcmple                                                
0001f331  xdc_runtime_Core_constructObject__I                             
0001f3b9  CfgGetEntry                                                     
0001f5c9  RawOutput                                                       
0001f64d  SlNetUtil_getHostByName                                         
0001f6d1  SockCleanPcb                                                    
0001f755  TcpPrAttach                                                     
0001f7d9  fdClose                                                         
0001f85d  mmFree                                                          
0001f8e1  ti_sysbios_family_arm_m3_Hwi_postInit__I                        
0001f965  HwiP_disableInterrupt                                           
0001f969  ti_sysbios_heaps_HeapMem_free__E                                
0001fa71  LLINew                                                          
0001faf1  PBM_alloc                                                       
0001fb71  ti_sysbios_knl_Clock_workFunc__E                                
0001fbf1  SlNetIfNDK_getConnectionStatus                                  
0001fced  CfgGetNextEntry                                                 
0001fde5  IGMPJoin                                                        
0001fe61  NDK_getsockopt                                                  
0001fedd  NDK_setsockopt                                                  
0001ff59  NS_BootTask                                                     
0001ffd5  PBM_free                                                        
00020000  HEAPSIZE                                                        
00020051  UART_write_prot                                                 
000200cd  fflush                                                          
00020149  mmBulkFree                                                      
00020241  SSIConfigSetExpClk                                              
000202bb  SockAccept                                                      
00020335  __aeabi_memclr                                                  
00020335  __aeabi_memclr4                                                 
00020335  __aeabi_memclr8                                                 
00020337  __aeabi_memset                                                  
00020337  __aeabi_memset4                                                 
00020337  __aeabi_memset8                                                 
0002033d  memset                                                          
000203af  NDK_sendto                                                      
00020429  NIMURegister                                                    
000204a1  SWIgpioButtonSw1                                                
00020519  SWIgpioButtonSw2                                                
00020591  TcpXmitTimer                                                    
00020609  fdOpenSession                                                   
00020681  llExit                                                          
000206f9  PipeSend                                                        
0002076f  UARTConfigSetExpClk                                             
000207e5  TcpTimeoutSackRexmt                                             
0002085b  ADCBufMSP432E4_control                                          
00020861  xdc_runtime_System_formatNum__I                                 
0002094d  IGMPLeaveHostGroup                                              
000209c1  NDK_recvfrom                                                    
00020a35  NIMUShutdown                                                    
00020aa9  RawEthRxPacket                                                  
00020b91  SockPcbConnect                                                  
00020c05  __TI_closefile                                                  
00020c79  llTimerTick                                                     
00020ced  HwiP_enableInterrupt                                            
00020cf1  xdc_runtime_Core_deleteObject__I                                
00020d65  TimerMSP432E4_start                                             
00020dd7  NDK_send                                                        
00020f29  SockShutdown                                                    
00020f99  dhcpDecodeType                                                  
00021009  getaddrinfo                                                     
00021079  mmBulkAlloc                                                     
000210e9  ti_sysbios_family_arm_lm4_Seconds_getTime__E                    
000210e9  ti_sysbios_hal_Seconds_SecondsProxy_getTime__E                  
000210e9  ti_sysbios_hal_Seconds_getTime__E                               
00021159  ti_sysbios_heaps_HeapMem_initPrimary__I                         
000211c9  timer0Callback                                                  
00021239  NDK_recv                                                        
000212a9  RtWalkNext                                                      
00021385  __aeabi_d2f                                                     
00021465  DbgPrintf                                                       
000214d1  EMACPHYConfigSet                                                
0002153d  HOSTrename                                                      
000215a9  NodeTreeNew                                                     
00021615  PBM_open                                                        
00021681  Power_releaseDependency                                         
000216ed  RawEthTxPacket                                                  
000217c5  UART_write_prot_sl                                              
00021831  llTimerGetTime                                                  
0002189d  OEMSysCritOn                                                    
000218a1  pthread_cancel                                                  
0002190d  taskPayload                                                     
00021979  ti_sysbios_knl_Swi_restoreHwi__E                                
000219e5  NDK_accept                                                      
00021a4f  TcpPrInherit                                                    
00021ab9  GPIO_hwiIntFxn                                                  
00021b21  HOSTlseek                                                       
00021b89  NDK_socket                                                      
00021bf1  Power_setDependency                                             
00021c59  SockListen                                                      
00021d29  TimerMSP432E4_allocateTimerResource                             
00021d91  _RtNodeInsert                                                   
00021e61  __TI_decompress_lzss                                            
00021ec9  pthread_exit                                                    
00022001  CfgFree                                                         
00022065  FdWaitEvent                                                     
000220c9  PBMQ_enq                                                        
0002212d  Power_init                                                      
00022191  SlNetIfNDK_getHostByName                                        
000221f5  SockSpawnAbort                                                  
00022259  TcpPrGetOption                                                  
000222bd  UdpChecksum                                                     
00022321  frexp                                                           
00022321  frexpl                                                          
00022385  fseek                                                           
000223e9  msgHelpAbout                                                    
0002244d  msgHelpPrint                                                    
00022515  NDK_SemaphoreP_post                                             
00022515  SemPost                                                         
00022515  SemPostBinary                                                   
00022519  ti_sysbios_family_arm_lm4_Timer_Module_startup__E               
0002257d  NDK_vsprintf                                                    
00022581  ti_sysbios_family_arm_m3_Hwi_dispatchC__I                       
000225e5  uDMAChannelAttributeDisable                                     
00022711  SBNew                                                           
00022773  __TI_wrt_ok                                                     
000227d5  CfgGetEntryCnt                                                  
00022835  EMACConfigGet                                                   
00022895  EMACIntDisable                                                  
000228f5  HOSTopen                                                        
00022955  NDK_getpeername                                                 
000229b5  NDK_getsockname                                                 
00022a15  NDK_shutdown                                                    
00022a75  NIMUUnregister                                                  
00022ad5  NodeFind                                                        
00022b35  RTCMsg                                                          
00022b95  SlNetSock_recvFrom                                              
00022bf5  SlNetSock_sendTo                                                
00022c55  TaskCreate                                                      
00022cb5  TimerControlTrigger                                             
00022d15  dhcpBuildOptions                                                
00022d75  NodeSetRt                                                       
00022d79  ti_sysbios_knl_Semaphore_post__E                                
00022dd9  ti_sysbios_knl_Swi_run__I                                       
00022e39  EMACIntEnable                                                   
00022e97  RtRemove                                                        
00022f53  VLANReceivePacket                                               
00022fb1  ADCBufMSP432E4_init                                             
0002300d  CfgSetExecuteOrder                                              
00023069  EMACAddrSet                                                     
000230c5  EMACIntStatus                                                   
00023121  GPIODirModeSet                                                  
00023235  close                                                           
000233a5  msgHelpRem                                                      
00023401  ti_sysbios_knl_Swi_schedule__I                                  
0002345d  RawEthSockGetCtx                                                
00023461  ti_sysbios_knl_Task_startCore__E                                
000234bd  RawEthSockPrAttach                                              
000234c1  xdc_runtime_Startup_exec__E                                     
0002351d  RawEthSockCheck                                                 
00023577  RtRedirect                                                      
000235d1  TcpValidateMetrics                                              
0002362b  dhcpBuildDecline                                                
00023685  BindFree                                                        
000236dd  EMACIntClear                                                    
00023735  GPIO_setCallback                                                
0002378d  HOSTread                                                        
000237e5  HOSTwrite                                                       
00023895  TcpChecksum                                                     
000238ed  UDMAMSP432E4_open                                               
00023945  _c_int00                                                        
0002399d  taskUART7Read                                                   
000239f5  ti_sysbios_family_arm_m3_Hwi_initStacks__E                      
00023aa3  getNextInp                                                      
00023b51  CfgEntryDeRef                                                   
00023ba5  GPIO_write                                                      
00023bf9  RawEthSockPcbAttach                                             
00023c4d  TcpTimeoutPersist                                               
00023ca1  __TI_ltoa                                                       
00023cf5  RawEthSockPrDetach                                              
00023cf9  ti_sysbios_family_arm_lm4_Timer_initDevice__I                   
00023d4d  ti_sysbios_family_arm_m3_Hwi_create                             
00023da1  timer_gettime                                                   
00023df5  DNSReplyFree                                                    
00023e47  IGMPLeave                                                       
00023e99  NDK_bind                                                        
00023eeb  TcpPrDetach                                                     
00023f91  EMACConfigSet                                                   
00023fe1  NDK_connect                                                     
00024081  SlNetIf_queryIf                                                 
00024121  adcBufCallback                                                  
000241c1  ti_sysbios_family_arm_m3_Hwi_Module_startup__E                  
00024211  ti_sysbios_knl_Clock_Instance_init__E                           
00024261  ti_sysbios_knl_Task_create                                      
000242b1  EMACPHYWrite                                                    
000242ff  NodeDeRef                                                       
0002434d  TimerMSP432E4_stop                                              
0002439b  fdint_lockfd                                                    
00024437  mmCopy                                                          
00024485  EMACPHYRead                                                     
000244d1  NtAddNetwork                                                    
00024569  SockValidateRoute                                               
00024601  TimerMSP432E4_freeTimerResource                                 
0002464d  UARTMSP432E4_writePolling                                       
00024699  __TI_doflush                                                    
000246e5  atoi                                                            
00024731  copy_in                                                         
0002477d  mmZeroInit                                                      
00024815  snprintf                                                        
000248ad  SPIMSP432E4DMA_init                                             
000248b1  ti_sysbios_heaps_HeapMem_getStats__E                            
000248fd  SemReset                                                        
00024901  ti_sysbios_knl_Swi_runLoop__I                                   
0002494d  SemaphoreP_post                                                 
00024951  ti_sysbios_knl_Task_allBlockedFunction__I                       
0002499d  SlNetIf_init                                                    
000249a1  ti_sysbios_knl_Task_schedule__I                                 
000249ed  uDMAChannelAssign                                               
00024a39  uDMAChannelModeGet                                              
00024a85  ADCBufMSP432E4_convert                                          
00024b19  SockDisconnect                                                  
00024b65  TimerNew                                                        
00024bf9  CfgNew                                                          
00024c41  LLIMsg                                                          
00024c89  NodeWalk                                                        
00024cd1  RawEthSockPcbDetach                                             
00024d19  SlNetSock_init                                                  
00024d61  SlNetSock_setOpt                                                
00024da9  SockPcbResolveChain                                             
00024df1  TcpDrop                                                         
00024e39  UARTMSP432E4_writeCancel                                        
00024e81  _LLIExpListInsert                                               
00024ec9  _RtExpListInsert                                                
00024f11  msgHelpClear                                                    
00024f59  __aeabi_d2iz                                                    
00024fa1  ti_ndk_config_Global_startupFxn                                 
00024fe9  ti_sysbios_family_arm_lm4_Timer_enableTimers__I                 
00025031  ti_sysbios_family_arm_m3_Hwi_disableInterrupt__E                
00025031  ti_sysbios_hal_Hwi_HwiProxy_disableInterrupt__E                 
00025031  ti_sysbios_hal_Hwi_disableInterrupt__E                          
00025079  ti_sysbios_family_arm_m3_Hwi_enableInterrupt__E                 
00025079  ti_sysbios_hal_Hwi_HwiProxy_enableInterrupt__E                  
00025079  ti_sysbios_hal_Hwi_enableInterrupt__E                           
000250c1  ti_sysbios_knl_Mailbox_Module_startup__E                        
00025109  ti_sysbios_knl_Task_deleteTerminatedTasksFunc__I                
00025151  xdc_runtime_Core_assignParams__I                                
00025199  NtIfIdx2Ip                                                      
000251df  RawEthSockSend                                                  
00025225  RingBuf_put                                                     
0002526d  SemCreateBinary                                                 
000252b3  TcpPrCtlError                                                   
00025341  ADCBuf_init                                                     
00025385  DNSBuildRequest                                                 
000253c9  GPIOPinConfigure                                                
0002540d  HOSTclose                                                       
00025451  HOSTunlink                                                      
00025495  ICMPChecksum                                                    
000254d9  IPReasmFree                                                     
0002551d  LLIGetValidTime                                                 
00025561  RouteMsg                                                        
000255a5  RtWalkEnd                                                       
000255e9  SPI_init                                                        
00025671  SockIntAbort                                                    
000256b5  SockPcbDetach                                                   
000256f9  SysCtlPeripheralPresent                                         
0002573d  SysCtlPeripheralReady                                           
00025781  Timer_init                                                      
000257c5  UART_init                                                       
00025809  getdevice                                                       
0002584d  __aeabi_d2uiz                                                   
00025891  ti_net_SlNet_initConfig                                         
000258d5  SlNetUtil_init                                                  
000258d9  ti_sysbios_family_arm_lm4_Timer_isrStub__E                      
0002591d  SockGetCtx                                                      
00025921  ti_sysbios_family_arm_m3_Hwi_getStackInfo__E                    
00025921  ti_sysbios_hal_Hwi_HwiProxy_getStackInfo__E                     
00025921  ti_sysbios_hal_Hwi_getStackInfo__E                              
00025965  TaskSelf                                                        
00025969  ti_sysbios_knl_Mailbox_postInit__I                              
000259ad  TaskSetPri                                                      
000259b1  ti_sysbios_knl_Swi_post__E                                      
000259f5  _llSerialInit                                                   
000259f9  xdc_runtime_System_atexit__E                                    
00025a3d  NDK_listen                                                      
00025a7f  RawEthSockShutdown                                              
00025ac1  TcpPrSendOOB                                                    
00025b03  fdCloseSession                                                  
00025b45  ADCBuf_open                                                     
00025b85  ClockP_create                                                   
00025bc5  HwiP_create                                                     
00025c05  LLIValidateRoute                                                
00025c45  PBM_copy                                                        
00025c85  RingBuf_get                                                     
00025cc5  SPI_open                                                        
00025d05  SemCreate                                                       
00025d45  SlNetSock_bind                                                  
00025d85  SockPcbRtChange                                                 
00025dc5  SysCtlPeripheralDisable                                         
00025e05  SysCtlPeripheralEnable                                          
00025e45  SysCtlPeripheralPowerOff                                        
00025e85  SysCtlPeripheralPowerOn                                         
00025ec5  SysCtlPeripheralSleepDisable                                    
00025f05  SysCtlPeripheralSleepEnable                                     
00025f45  TcpPrSend                                                       
00025f85  Timer_open                                                      
00025fc5  UARTMSP432E4_read                                               
00026005  UART_open                                                       
00026045  UDMAMSP432E4_init                                               
000260c5  __aeabi_uidiv                                                   
000260c5  __aeabi_uidivmod                                                
00026105  runClear                                                        
00026145  sprintf                                                         
00026185  C$$EXIT                                                         
00026185  abort                                                           
00026185  xdc_runtime_System_abortStd__E                                  
00026189  ti_sysbios_family_arm_lm4_Timer_startup__E                      
00026189  ti_sysbios_knl_Clock_TimerProxy_startup__E                      
000261c9  ti_sysbios_heaps_HeapMem_Instance_init__E                       
00026209  TaskYield                                                       
00026209  ti_sysbios_knl_Task_yield__E                                    
00026249  uDMAInit                                                        
00026289  DHCPClose                                                       
00026307  SlNetSock_close                                                 
00026345  TcpPrDisconnect                                                 
000263c1  fdint_unlockfd                                                  
000263ff  CfgEntryGetData                                                 
0002643d  ExecClose                                                       
000264b5  RtWalkBegin                                                     
000264f1  SemaphoreP_create                                               
0002652d  TcpPrConnect                                                    
00026569  TcpSetPersist                                                   
000265e1  _RtNodeRemove                                                   
0002661d  _llTimerInit                                                    
00026659  msgPrint                                                        
00026695  list_get_head                                                   
00026699  ti_sysbios_family_arm_m3_Hwi_Instance_finalize__E               
000266d5  ti_sysbios_knl_Clock_create                                     
00026711  ti_sysbios_knl_Swi_restore__E                                   
0002674d  list_get_next                                                   
00026751  timer_delete                                                    
0002678d  uDMAChannelControlSet                                           
000267c9  xdc_runtime_System_processAtExit__E                             
00026805  IPChecksum                                                      
00026841  IPReasmTimeout                                                  
00026879  NodeGetRt                                                       
000268b1  SBSetMax                                                        
00026921  SlNetUtil_htonl                                                 
00026921  SlNetUtil_ntohl                                                 
00026959  TcpClose                                                        
00026991  TimerHSTick                                                     
00026a01  __TI_writemsg                                                   
00026a2f  C$$IO$$                                                         
00026a39  dhcpOptionsClear                                                
00026a71  fdint_waitevent                                                 
00026aa9  __aeabi_f2d                                                     
00026ae1  sscanf                                                          
00026b19  ti_sysbios_knl_Task_processVitalTaskFlag__I                     
00026b51  ADCBufMSP432E4_convertAdjustedToMicroVolts                      
00026b87  TimerControlStall                                               
00026bbd  UARTMSP432E4_readCancel                                         
00026bf3  strncpy                                                         
00026c29  CfgSetService                                                   
00026c91  NIMUFindByName                                                  
00026cc5  RawEthSockClose                                                 
00026cf9  RawEthSockNotify                                                
00026d2d  SlNetUtil_htons                                                 
00026d2d  SlNetUtil_ntohs                                                 
00026d61  SockPrCtlError                                                  
00026d95  TimerMSP432E4_close                                             
00026dc9  __TI_cleanup                                                    
00026dfd  __TI_readmsg                                                    
00026e99  dhcpBuildDiscover                                               
00026f35  stricmp                                                         
00026f69  strstr                                                          
00026f9d  ti_sysbios_knl_Semaphore_create                                 
00026fd1  CfgGetImmediate                                                 
00027003  PipeCheck                                                       
00027035  RtDeRef                                                         
00027067  RtSetFailure                                                    
00027099  SBFlush                                                         
00027131  ti_sysbios_hal_Hwi_initStack                                    
00027163  SPIMSP432E4DMA_control                                          
00027169  xdc_runtime_System_putchar__I                                   
0002719d  Board_init                                                      
000271cd  EMACMSP432E4_isLinkUp                                           
000271fd  GPIOMSP432E4_undoPinConfig                                      
0002722d  GPIO_enableInt                                                  
0002725d  GPIO_read                                                       
0002728d  NS_PreBoot                                                      
000272bd  SlNetIf_getIDByName                                             
000272ed  SlNetUtil_gaiStrErr                                             
0002731d  SockBind                                                        
0002734d  SockGetName                                                     
0002737d  SockPcbAttach                                                   
000273ad  UARTDisable                                                     
0002740d  dhcpPacketSend                                                  
0002743d  fdint_setevent                                                  
0002746d  finddevice                                                      
0002749d  list_remove_node                                                
000274cd  ti_sysbios_BIOS_atExitFunc__I                                   
000274fd  ti_sysbios_BIOS_startFunc__I                                    
0002752d  ti_sysbios_BIOS_RtsGateProxy_enter__E                           
00027531  ti_sysbios_family_arm_lm4_Timer_stop__E                         
00027561  ti_sysbios_family_arm_m3_TaskSupport_start__E                   
00027561  ti_sysbios_knl_Task_SupportProxy_start__E                       
00027591  ti_sysbios_gates_GateHwi_Object__create__S                      
000275c1  ti_sysbios_gates_GateMutex_Object__create__S                    
000275f1  ti_sysbios_gates_GateMutex_enter__E                             
00027621  ti_sysbios_gates_GateSwi_Object__create__S                      
00027651  ti_sysbios_heaps_HeapMem_Object__create__S                      
00027681  ti_sysbios_knl_Clock_construct                                  
000276b1  ti_sysbios_knl_Semaphore_construct                              
000276e1  ti_sysbios_knl_Semaphore_pendTimeout__I                         
00027711  ti_sysbios_knl_Task_restore__E                                  
00027741  ti_sysbios_knl_Task_unblockI__E                                 
0002779f  SBFree                                                          
000277cd  charCmp                                                         
000277fb  __aeabi_i2d                                                     
00027829  malloc                                                          
00027857  FdSignalEvent                                                   
00027885  IGMPTestGroup                                                   
000278b1  NDK_SemaphoreP_createBinary                                     
000278dd  NIMUPacketServiceCheck                                          
00027909  PipeClose                                                       
00027935  SemaphoreP_createBinary                                         
00027961  SysCtlPeripheralClockGating                                     
0002798d  _LLIExpListRemove                                               
000279b9  _LLITimeoutFlush                                                
000279e5  _RtExpListRemove                                                
00027a11  _pthread_cleanupFxn                                             
00027a3d  ti_sysbios_BIOS_RtsGateProxy_leave__E                           
00027ac5  setsockopt                                                      
00027af1  strncmp                                                         
00027b1d  ti_sysbios_gates_GateHwi_Handle__label__S                       
00027b1d  xdc_runtime_Main_Module_GateProxy_Handle__label__S              
00027b1d  xdc_runtime_System_Module_GateProxy_Handle__label__S            
00027b49  ti_sysbios_BIOS_RtsGateProxy_Handle__label__S                   
00027b49  ti_sysbios_gates_GateMutex_Handle__label__S                     
00027b49  ti_sysbios_heaps_HeapMem_Module_GateProxy_Handle__label__S      
00027b75  ti_sysbios_gates_GateSwi_Handle__label__S                       
00027ba1  ti_sysbios_heaps_HeapMem_Handle__label__S                       
00027ba1  xdc_runtime_Memory_HeapProxy_Handle__label__S                   
00027bcd  ti_sysbios_knl_Clock_doTick__I                                  
00027bf9  ti_sysbios_knl_Clock_getTimeout__E                              
00027c25  ti_sysbios_knl_Queue_construct                                  
00027c51  remove                                                          
00027c51  unlink                                                          
00027c7d  PBMQ_deq                                                        
00027cd1  SlNetUtil_inetPton                                              
00027d25  TimerLoadSet                                                    
00027d4f  TimerPrescaleSet                                                
00027da3  calloc                                                          
00027df7  dhcpPacketReceive                                               
00027e21  sem_init                                                        
00027e4d  BindFindByNet                                                   
00027e75  FlashUserGet                                                    
00027e9d  LLIFree                                                         
00027ec5  NC_SystemClose                                                  
00027eed  NDK_registerHook                                                
00027f15  NIMUCreatePacket                                                
00027f3d  NIMUPacketService                                               
00027f65  SlNetIf_getIfByID                                               
00027f8d  SlNetSock_sdsClr                                                
00027fb5  SlNetSock_sdsIsSet                                              
00027fdd  SlNetSock_sdsSet                                                
0002802d  VLANInit                                                        
00028055  lseek                                                           
0002807d  memmove                                                         
000280f5  ti_sysbios_family_arm_m3_Hwi_excHandlerAsm__I                   
0002811d  ti_sysbios_family_arm_lm4_Timer_masterEnable__I                 
00028121  ti_sysbios_knl_Clock_addI__E                                    
00028149  ti_sysbios_knl_Swi_Module_startup__E                            
00028171  vsprintf                                                        
00028199  write                                                           
000281c1  CfgEntryInfo                                                    
000281e7  ti_sysbios_family_arm_m3_Hwi_pendSV__I                          
0002820b  ti_sysbios_family_arm_m3_Hwi_return                             
0002820d  ti_sysbios_family_arm_m3_Hwi_delete                             
00028211  xdc_runtime_System_vprintf__E                                   
00028239  BindFindByHost                                                  
0002825d  BindGetIFByDBCast                                               
000282a5  ExecTimer                                                       
000282c9  GPIOPinTypeADC                                                  
000282ed  GPIOPinTypeEthernetLED                                          
00028311  GPIOPinTypeSSI                                                  
00028335  GPIOPinTypeUART                                                 
00028359  NIMUFindByIndex                                                 
0002837d  RTCAddHook                                                      
000283a1  RawEthSockPcbFind                                               
000283e9  RtSetTimeout                                                    
0002840d  SlNetIf_getConnectionStatus                                     
00028431  SockPcbCleanup                                                  
00028455  TcpPrListen                                                     
00028479  TcpTimeoutWait2                                                 
0002849d  UARTCharPutNonBlocking                                          
000284c1  UARTEnable                                                      
0002852d  ti_sysbios_family_arm_m3_TaskSupport_Module__startupDone__S     
0002852d  ti_sysbios_knl_Task_SupportProxy_Module__startupDone__S         
00028531  pthread_attr_init                                               
00028579  ti_sysbios_BIOS_registerRTSLock__I                              
0002859d  ti_sysbios_BIOS_removeRTSLock__I                                
000285c1  ti_sysbios_gates_GateMutex_Object__delete__S                    
000285e5  ti_sysbios_heaps_HeapMem_Module_GateProxy_enter__E              
000285e9  ti_sysbios_knl_Clock_Module_startup__E                          
0002860d  ti_sysbios_knl_Clock_Object__delete__S                          
00028631  ti_sysbios_knl_Clock_start__E                                   
00028655  ti_sysbios_heaps_HeapMem_Module_GateProxy_leave__E              
00028659  ti_sysbios_knl_Semaphore_Instance_init__E                       
0002867d  ti_sysbios_knl_Semaphore_Object__delete__S                      
000286a1  ti_sysbios_knl_Task_restoreHwi__E                               
000286c5  ti_sysbios_knl_Clock_TimerProxy_getMaxTicks__E                  
000286c9  xdc_runtime_Error_policyMin__E                                  
000286ed  CfgEntryRef                                                     
0002870f  EMACReset                                                       
00028731  EMACRxEnable                                                    
00028753  EMACTxEnable                                                    
00028775  GPIOIntStatus                                                   
00028799  ti_sysbios_family_arm_lm4_Timer_write__I                        
000287bd  EMACFrameFilterSet                                              
000287fd  GPIOPinWrite                                                    
0002881d  NC_BootComplete                                                 
0002885d  RTCRemoveHook                                                   
0002887d  RingBuf_peek                                                    
0002889d  TcpTimeoutRemove                                                
000288dd  fdsetTestEntry                                                  
0002891d  memchr                                                          
0002893d  __aeabi_ui2d                                                    
0002895d  ti_sysbios_BIOS_rtsLock__I                                      
0002897d  ti_sysbios_family_arm_m3_Hwi_Object__delete__S                  
0002899d  ti_sysbios_knl_Clock_delete                                     
000289a1  ti_sysbios_family_arm_m3_Hwi_clearInterrupt__E                  
000289a1  ti_sysbios_hal_Hwi_HwiProxy_clearInterrupt__E                   
000289a1  ti_sysbios_hal_Hwi_clearInterrupt__E                            
000289c1  ti_sysbios_gates_GateHwi_Object__delete__S                      
000289e1  ti_sysbios_gates_GateSwi_Object__delete__S                      
00028a01  ti_sysbios_heaps_HeapMem_Object__delete__S                      
00028a21  ti_sysbios_knl_Clock_destruct                                   
00028a41  ti_sysbios_knl_Idle_run__E                                      
00028a61  ti_sysbios_knl_Semaphore_destruct                               
00028a81  ti_sysbios_knl_Task_Object__delete__S                           
00028aa1  ADCBusy                                                         
00028abf  SSIBusy                                                         
00028add  SSIIntStatus                                                    
00028afb  TimerDisable                                                    
00028b19  TimerEnable                                                     
00028b37  UARTBusy                                                        
00028b55  UARTCharPut                                                     
00028b73  UARTCharsAvail                                                  
00028b91  UARTIntStatus                                                   
00028baf  fdError                                                         
00028bcd  list_remove                                                     
00028beb  main                                                            
00028c09  strcat                                                          
00028c27  ti_sysbios_family_xxx_Hwi_switchAndRunFunc                      
00028c45  ADCReferenceSet                                                 
00028c61  BindFindByIF                                                    
00028c99  IPIsLoopback                                                    
00028cb5  NDK_sprintf                                                     
00028cd1  NIMUAddHeader                                                   
00028ced  SSIDataGet                                                      
00028d09  SockPrDetach                                                    
00028d25  TaskDestroy                                                     
00028d41  UARTCharGetNonBlocking                                          
00028d5d  UARTFlowControlSet                                              
00028d79  UARTTxIntModeSet                                                
00028d95  _abort_msg                                                      
00028dcd  memccpy                                                         
00028de9  ti_sysbios_family_arm_m3_Hwi_excHandler__I                      
00028e05  ti_sysbios_knl_Semaphore_delete                                 
00028e09  ti_sysbios_gates_GateMutex_Instance_init__E                     
00028e25  ti_sysbios_knl_Task_delete                                      
00028e29  ti_sysbios_knl_Clock_Instance_finalize__E                       
00028e45  ti_sysbios_knl_Queue_destruct                                   
00028e61  ti_sysbios_knl_Queue_put__E                                     
00028e7d  xdc_runtime_System_Module_GateProxy_enter__E                    
00028e81  ti_sysbios_knl_Task_enter__I                                    
00028e9d  xdc_runtime_System_Module_GateProxy_leave__E                    
00028ea1  ti_sysbios_rts_ti_ReentSupport_getReent__E                      
00028ea1  ti_sysbios_rts_ti_ReentSupport_getReent__F                      
00028edd  uDMAChannelDisable                                              
00028ef9  uDMAChannelEnable                                               
00028f15  ADCSequenceDisable                                              
00028f2f  BindGetIP                                                       
00028f49  GPIOIntEnable                                                   
00028f63  NDK_getSockCtx                                                  
00028f7d  SSIDataPut                                                      
00028f97  SockSetOOBMark                                                  
00028fb1  copysign                                                        
00028fb1  copysignl                                                       
00028fcb  fdint_getfdt                                                    
00028fe5  free                                                            
00028fff  sendto                                                          
00029019  xdc_runtime_System_printf__E                                    
00029033  GPIOPinRead                                                     
0002904d  IPRtChange                                                      
00029065  Power_idleFunc                                                  
0002907d  RawEthSockPcbCleanup                                            
0002916d  SSIDMADisable                                                   
00029185  SSIDMAEnable                                                    
0002919d  SSIIntDisable                                                   
000291b5  SSIIntEnable                                                    
000291cd  TcpPseudoCs                                                     
000291e5  TcpTimeoutAdd                                                   
000291fd  TimerIntDisable                                                 
00029215  TimerIntEnable                                                  
0002922d  TimerMSP432E4_getCount                                          
00029245  UARTFIFOLevelSet                                                
0002925d  UARTIntDisable                                                  
00029275  UARTIntEnable                                                   
0002928d  UART_Params_init                                                
000292a5  _args_main                                                      
0002931d  dhcpSocketClose                                                 
00029335  fdint_clearevent                                                
0002934d  list_add                                                        
00029365  __aeabi_lmul                                                    
0002937d  strcmp                                                          
00029395  strrchr                                                         
000293ad  ti_sysbios_BIOS_rtsUnlock__I                                    
000293c5  ti_sysbios_family_arm_lm4_Timer_Module__startupDone__F          
000293c5  ti_sysbios_family_arm_lm4_Timer_Module__startupDone__S          
000293c5  ti_sysbios_knl_Clock_TimerProxy_Module__startupDone__S          
000293dd  ti_sysbios_family_arm_m3_Hwi_Module__startupDone__F             
000293dd  ti_sysbios_family_arm_m3_Hwi_Module__startupDone__S             
000293dd  ti_sysbios_hal_Hwi_HwiProxy_Module__startupDone__S              
000293f5  ti_sysbios_family_arm_m3_TaskSupport_swap__E                    
000293f5  ti_sysbios_knl_Task_SupportProxy_swap__E                        
00029401  ti_sysbios_knl_Task_swapReturn                                  
00029411  ti_sysbios_gates_GateMutex_leave__E                             
00029429  ti_sysbios_knl_Task_sleepTimeout__I                             
00029441  ti_sysbios_rts_ti_ReentSupport_getTlsAddr__I                    
00029471  xdc_runtime_Error_init__E                                       
00029489  xdc_runtime_System_exit__E                                      
000294a1  SSIDisable                                                      
000294b7  SSIEnable                                                       
000294cd  UARTCharGet                                                     
000294e3  fdint_freefdt                                                   
000294f9  recvfrom                                                        
0002950f  socket                                                          
00029525  strchr                                                          
0002953b  ti_sysbios_BIOS_exitFunc__I                                     
00029581  ADCBuf_Params_init                                              
00029595  BindIPHost2IF                                                   
000295bd  EMACRxDMADescriptorListSet                                      
000295d1  EMACTxDMADescriptorListSet                                      
000295e5  GPIOIntClear                                                    
000295f9  GPIOMSP432E4_getGpioBaseAddr                                    
0002960d  GPIOMSP432E4_getPowerResourceId                                 
00029621  NC_NetStop                                                      
00029635  NIMUSendPacket                                                  
00029649  NtRemoveNetwork                                                 
0002965d  RawEthSockPcbInit                                               
00029671  SPI_Params_init                                                 
00029685  SlNetSock_sdsClrAll                                             
00029699  TimerFree                                                       
000296ad  adcErrorSWI                                                     
000296c1  gpioButtonSw1Callback                                           
000296d5  gpioButtonSw2Callback                                           
000296e9  pthread_attr_setschedparam                                      
000296fd  strcpy                                                          
00029711  strlen                                                          
00029725  ti_sysbios_family_arm_m3_Hwi_Object__get__S                     
00029739  ti_sysbios_family_arm_m3_Hwi_switchFromBootStack__E             
00029739  ti_sysbios_hal_Hwi_HwiProxy_switchFromBootStack__E              
00029739  ti_sysbios_hal_Hwi_switchFromBootStack__E                       
0002974d  ti_sysbios_heaps_HeapMem_Object__get__S                         
00029761  ti_sysbios_knl_Swi_Object__get__S                               
00029775  ti_sysbios_knl_Task_Object__first__S                            
00029789  ti_sysbios_knl_Task_Object__next__S                             
0002979d  timer1Callback                                                  
000297b1  uDMAControlBaseSet                                              
000297c5  ADCIntClearEx                                                   
000297d7  ADCPhaseDelaySet                                                
000297e9  EMACTxDMAPollDemand                                             
000297fb  NDK_SemaphoreP_pend                                             
0002980d  RingBuf_construct                                               
0002981f  SSIIntClear                                                     
00029831  SemaphoreP_pend                                                 
00029843  SockPrAttach                                                    
00029855  SockSetOOBData                                                  
00029867  TimerIntClear                                                   
00029879  UARTIntClear                                                    
0002988b  UARTRxErrorGet                                                  
000298c3  inet_addr                                                       
000298d9  ti_sysbios_hal_Hwi_Module_startup__E                            
000298eb  SysCtlDelay                                                     
000298f1  ti_sysbios_knl_Semaphore_reset__E                               
00029903  wcslen                                                          
00029915  xdc_runtime_Startup_exec__I                                     
00029929  ti_sysbios_family_arm_msp432e4_init_Boot_init__I                
00029929  xdc_runtime_Startup_reset__I                                    
00029939  BindIF2IPHost                                                   
00029949  BindIFNet2IPHost                                                
00029959  ExecHRef                                                        
00029969  HwiP_Params_init                                                
00029979  NC_IPUpdate                                                     
00029989  NIMUGetRsvdSizeInfo                                             
00029999  PowerMSP432E4_sleepPolicy                                       
000299a9  SemPend                                                         
000299a9  SemPendBinary                                                   
000299b9  SlNetUtil_freeAddrInfo                                          
000299c9  Timer_Params_init                                               
000299d9  UARTRxErrorClear                                                
000299e9  bind                                                            
00029a09  isdigit                                                         
00029a19  isprint                                                         
00029a29  isspace                                                         
00029a49  ti_sysbios_BIOS_getCpuFreq__E                                   
00029a59  ti_sysbios_BIOS_setThreadType__E                                
00029a69  ti_sysbios_BIOS_start__E                                        
00029a79  ti_sysbios_family_arm_m3_TaskSupport_glue                       
00029a89  ti_sysbios_gates_GateMutex_Instance_finalize__E                 
00029a99  ti_sysbios_gates_GateSwi_enter__E                               
00029aa9  ti_sysbios_knl_Mailbox_Object__get__S                           
00029ab9  ti_sysbios_knl_Semaphore_Instance_finalize__E                   
00029ac9  ti_sysbios_knl_Swi_disable__E                                   
00029ad9  ti_sysbios_knl_Task_Object__get__S                              
00029ae9  ti_sysbios_knl_Task_disable__E                                  
00029af9  tolower                                                         
00029b09  xdc_runtime_Memory_free__E                                      
00029b19  xdc_runtime_SysCallback_abort__E                                
00029b19  xdc_runtime_System_SupportProxy_abort__E                        
00029b29  xdc_runtime_SysCallback_exit__E                                 
00029b29  xdc_runtime_System_SupportProxy_exit__E                         
00029b39  xdc_runtime_SysCallback_putch__E                                
00029b39  xdc_runtime_System_SupportProxy_putch__E                        
00029b49  xdc_runtime_SysCallback_ready__E                                
00029b49  xdc_runtime_System_SupportProxy_ready__E                        
00029b59  ExecLowResource                                                 
00029b67  RingBuf_isFull                                                  
00029b75  __TI_decompress_none                                            
00029b83  TcpPrRecv                                                       
00029b89  pthread_attr_setdetachstate                                     
00029b99  sem_wait                                                        
00029ba9  ti_sysbios_knl_Idle_loop__E                                     
00029bb9  ti_sysbios_knl_Queue_empty__E                                   
00029bc9  BindGetFirst                                                    
00029bd5  CfgSetDefault                                                   
00029be1  ClockP_delete                                                   
00029bed  HwiP_delete                                                     
00029bf9  NDK_SemaphoreP_create                                           
00029c05  NDK_SemaphoreP_delete                                           
00029c05  SemDelete                                                       
00029c05  SemDeleteBinary                                                 
00029c11  NDK_hookInit                                                    
00029c1d  NIMUSetRsvdSizeInfo                                             
00029c29  NotifyLowResource                                               
00029c35  PBM_close                                                       
00029c41  SemaphoreP_delete                                               
00029c4d  _TaskInit                                                       
00029c59  _TaskShutdown                                                   
00029c65  _llTimerShutdown                                                
00029c71  _register_lock                                                  
00029c7d  _register_unlock                                                
00029c89  __TI_zero_init                                                  
00029cad  llTimerGetStartTime                                             
00029cb9  ti_sysbios_BIOS_getThreadType__E                                
00029cc9  ti_sysbios_family_arm_lm4_Timer_getMaxTicks__E                  
00029cd5  ti_sysbios_family_arm_m3_Hwi_Params__init__S                    
00029cd5  ti_sysbios_hal_Hwi_HwiProxy_Params__init__S                     
00029ce1  ti_sysbios_family_arm_m3_Hwi_disableFxn__E                      
00029ce1  ti_sysbios_hal_Hwi_HwiProxy_disable__E                          
00029cf1  ti_sysbios_family_arm_m3_TaskSupport_getStackAlignment__E       
00029cf1  ti_sysbios_knl_Task_SupportProxy_getStackAlignment__E           
00029d01  ti_sysbios_gates_GateHwi_enter__E                               
00029d11  ti_sysbios_gates_GateSwi_query__E                               
00029d1d  ti_sysbios_knl_Clock_Params__init__S                            
00029d29  ti_sysbios_knl_Queue_Object__get__S                             
00029d35  ti_sysbios_knl_Semaphore_Params__init__S                        
00029d41  ti_sysbios_knl_Task_Params__init__S                             
00029d51  ti_sysbios_knl_Task_self__E                                     
00029d61  ti_sysbios_rts_ti_ReentSupport_taskRegHook__I                   
00029d6d  uDMAControlBaseGet                                              
00029d79  uDMAEnable                                                      
00029d85  uDMAErrorStatusClear                                            
00029d91  uDMAErrorStatusGet                                              
00029da1  xdc_runtime_Startup_rtsDone__E                                  
00029dad  ADCBuf_convert                                                  
00029db7  ADCBuf_convertCancel                                            
00029dc1  ClockP_Params_init                                              
00029dcb  SPI_transfer                                                    
00029dd5  Timer_setPeriod                                                 
00029ddf  Timer_start                                                     
00029de9  UART_read                                                       
00029df3  UART_write                                                      
00029e11  fdint_signalevent                                               
00029e1b  fdint_signaltimeout                                             
00029e29  sem_post                                                        
00029e33  xdc_runtime_Memory_HeapProxy_alloc__E                           
00029e3d  xdc_runtime_Memory_HeapProxy_free__E                            
00029e4f  SemaphoreP_Params_init                                          
00029e57  TaskBlock                                                       
00029e79  pthread_attr_setstacksize                                       
00029e89  ti_sysbios_family_arm_lm4_Timer_masterDisable__I                
00029e91  ti_sysbios_family_arm_m3_Hwi_doSwiRestore__I                    
00029e99  ti_sysbios_family_arm_m3_Hwi_startup__E                         
00029e99  ti_sysbios_hal_Hwi_HwiProxy_startup__E                          
00029e99  ti_sysbios_hal_Hwi_startup__E                                   
00029ea1  ti_sysbios_knl_Task_getHookContext__E                           
00029ea9  ti_sysbios_knl_Task_setHookContext__E                           
00029eb9  TimerMSP432E4_control                                           
00029ebf  UDMAMSP432E4_close                                              
00029ec5  fdint_setinvalid                                                
00029ed1  ti_sysbios_family_arm_m3_Hwi_doTaskRestore__I                   
00029ed9  HwiP_restore                                                    
00029ed9  NDK_HwiP_restore                                                
00029ed9  OEMSysCritOff                                                   
00029ed9  ti_sysbios_family_arm_m3_Hwi_restoreFxn__E                      
00029ed9  ti_sysbios_hal_Hwi_HwiProxy_restore__E                          
00029ee1  ti_sysbios_gates_GateHwi_leave__E                               
00029ee9  ti_sysbios_gates_GateSwi_leave__E                               
00029ef1  ti_sysbios_heaps_HeapMem_isBlocking__E                          
00029ef9  ti_sysbios_knl_Clock_stop__E                                    
00029f01  ti_sysbios_knl_Queue_Instance_init__E                           
00029f09  ti_sysbios_knl_Swi_startup__E                                   
00029f11  xdc_runtime_System_Module_startup__E                            
00029f19  __aeabi_errno_addr                                              
00029f21  ti_sysbios_gates_GateHwi_query__E                               
00029f21  xdc_runtime_Main_Module_GateProxy_query__E                      
00029f21  xdc_runtime_System_Module_GateProxy_query__E                    
00029f29  ti_sysbios_BIOS_RtsGateProxy_query__E                           
00029f29  ti_sysbios_gates_GateMutex_query__E                             
00029f29  ti_sysbios_heaps_HeapMem_Module_GateProxy_query__E              
00029f31  ti_sysbios_knl_Clock_setTimeout__E                              
00029f39  ti_sysbios_knl_Semaphore_getCount__E                            
00029f41  ti_sysbios_knl_Task_startup__E                                  
00029f49  xdc_runtime_SysCallback_defaultReady                            
00029f51  xdc_runtime_System_printf_va__F                                 
00029f59  ti_sysbios_BIOS_linkedWithIncorrectBootLibrary__E               
00029f61  ti_sysbios_gates_GateHwi_Instance_init__E                       
00029f69  ti_sysbios_gates_GateSwi_Instance_init__E                       
00029f71  ti_sysbios_knl_Clock_logTick__E                                 
00029f79  xdc_runtime_SysCallback_defaultAbort                            
00029f81  xdc_runtime_SysCallback_defaultExit                             
00029f89  xdc_runtime_SysCallback_defaultPutch                            
00029f91  xdc_runtime_System_abortSpin__E                                 
00029f99  xdc_runtime_System_exitSpin__E                                  
0002a1b0  sinLUT                                                          
0002a3b2  ti_sysbios_family_arm_m3_Hwi_Module__id__C                      
0002a53a  _ctypes_                                                        
0002a77c  heap0                                                           
0002a780  task0                                                           
0002a784  task1                                                           
0002a788  task2                                                           
0002a78c  task3                                                           
0002a790  task4                                                           
0002a794  task5                                                           
0002a798  task6                                                           
0002a79c  sem0                                                            
0002a7a0  sem1                                                            
0002a7a4  sem2                                                            
0002a7a8  sem3                                                            
0002a7ac  swi0                                                            
0002a7b0  swi1                                                            
0002a7b4  swi2                                                            
0002a7b8  swi3                                                            
0002a7bc  swi4                                                            
0002a7c0  gateSwi0                                                        
0002a7c4  gateSwi1                                                        
0002a7c8  gateSwi2                                                        
0002a7cc  gateSwi3                                                        
0002a7d0  gateSwi4                                                        
0002a7d4  gateSwi5                                                        
0002a7d8  gateSwi6                                                        
0002a7dc  sem4                                                            
0002a7e0  sem5                                                            
0002a7e4  gateSwi7                                                        
0002a7e8  tiposix_mqGate                                                  
0002a844  Code2Err                                                        
0002a9ae  ti_sysbios_heaps_HeapMem_Module__id__C                          
0002a9b0  ti_sysbios_knl_Task_Object__PARAMS__C                           
0002a9ec  spiMSP432E4DMAHWAttrs                                           
0002aa1c  ti_sysbios_family_arm_m3_Hwi_Object__PARAMS__C                  
0002aa4c  ti_sysbios_knl_Task_hooks__A                                    
0002aa7c  UARTMSP432E4_fxnTable                                           
0002aaa4  ti_sysbios_heaps_HeapMem_Module__FXNS__C                        
0002aacc  ADCBufMSP432E4_fxnTable                                         
0002aaf0  UART_defaultParams                                              
0002ab14  ti_sysbios_gates_GateHwi_Module__FXNS__C                        
0002ab38  ti_sysbios_gates_GateMutex_Module__FXNS__C                      
0002ab5c  ti_sysbios_gates_GateSwi_Module__FXNS__C                        
0002ab80  ti_sysbios_heaps_HeapMem_Object__PARAMS__C                      
0002aba4  ti_sysbios_knl_Clock_Object__PARAMS__C                          
0002abc8  ti_sysbios_knl_Semaphore_Object__PARAMS__C                      
0002ac0c  SPI_defaultParams                                               
0002ac2c  TimerMSP432E4_fxnTable                                          
0002ac4c  adcbufMSP432E4HWAttrs                                           
0002acac  ti_sysbios_family_arm_m3_Hwi_Object__DESC__C                    
0002accc  ti_sysbios_gates_GateHwi_Object__DESC__C                        
0002acec  ti_sysbios_gates_GateMutex_Object__DESC__C                      
0002ad0c  ti_sysbios_gates_GateSwi_Object__DESC__C                        
0002ad2c  ti_sysbios_heaps_HeapMem_Object__DESC__C                        
0002ad4c  ti_sysbios_knl_Clock_Object__DESC__C                            
0002ad6c  ti_sysbios_knl_Queue_Object__DESC__C                            
0002ad8c  ti_sysbios_knl_Semaphore_Object__DESC__C                        
0002adac  ti_sysbios_knl_Task_Object__DESC__C                             
0002adcc  timerMSP432E4HWAttrs                                            
0002ae0c  xdc_runtime_Startup_sfxnTab__A                                  
0002ae2c  ADCBuf_defaultParams                                            
0002ae44  EMACMSP432E4_hwAttrs                                            
0002ae5c  SPIMSP432E4DMA_fxnTable                                         
0002ae74  Timer_config                                                    
0002ae8c  UART_config                                                     
0002aebc  ti_ndk_config_Global_rawPageSize                                
0002aec0  ti_ndk_config_Global_rawPageCount                               
0002aec4  ti_ndk_config_Global_smallest                                   
0002aec8  ti_ndk_config_Global_largest                                    
0002aecc  ti_ndk_config_Global_numFrameBuf                                
0002aed0  ti_ndk_config_Global_sizeFrameBuf                               
0002aed4  ti_sysbios_gates_GateHwi_Object__PARAMS__C                      
0002aeec  ti_sysbios_gates_GateMutex_Object__PARAMS__C                    
0002af04  ti_sysbios_gates_GateSwi_Object__PARAMS__C                      
0002af1c  ti_sysbios_knl_Queue_Object__PARAMS__C                          
0002af34  GPIOMSP432E4_config                                             
0002af5c  CONFIG_ADCBUF_0_CONST                                           
0002af5d  ADCBUF_CHANNEL_0_CONST                                          
0002af5e  ADCBuf_count                                                    
0002af5f  CONFIG_GPIO_0_CONST                                             
0002af60  CONFIG_GPIO_1_CONST                                             
0002af61  CONFIG_GPIO_2_CONST                                             
0002af62  CONFIG_GPIO_3_CONST                                             
0002af63  CONFIG_GPIO_4_CONST                                             
0002af64  CONFIG_GPIO_5_CONST                                             
0002af65  CONFIG_GPIO_6_CONST                                             
0002af66  CONFIG_GPIO_7_CONST                                             
0002af67  CONFIG_SPI_0_CONST                                              
0002af68  SPI_count                                                       
0002af69  CONFIG_TIMER_0_CONST                                            
0002af6a  CONFIG_TIMER_1_CONST                                            
0002af6b  Timer_count                                                     
0002af6c  CONFIG_UART_0_CONST                                             
0002af6d  CONFIG_UART_1_CONST                                             
0002af6e  UART_count                                                      
0002af6f  xdc_runtime_Error_policy__C                                     
0002af90  xdc_runtime_Startup_firstFxns__A                                
0002afa0  xdc_runtime_Startup_sfxnRts__A                                  
0002afb0  ADCBuf_config                                                   
0002afbc  SPI_config                                                      
0002afd4  ti_sysbios_knl_Idle_funcList__A                                 
0002afe0  udmaMSP432E4HWAttrs                                             
0002afec  PowerMSP432E4_config                                            
0002aff4  UDMAMSP432E4_config                                             
0002b024  ti_sysbios_knl_Idle_funcList__C                                 
0002b02c  ti_sysbios_knl_Task_hooks__C                                    
0002b034  xdc_runtime_Startup_firstFxns__C                                
0002b03c  xdc_runtime_Startup_lastFxns__C                                 
0002b062  ti_sysbios_knl_Task_Module__id__C                               
0002b064  ti_sysbios_family_arm_lm4_Timer_enableFunc__C                   
0002b068  ti_sysbios_family_arm_lm4_Timer_numTimerDevices__C              
0002b06c  ti_sysbios_family_arm_lm4_Timer_startupNeeded__C                
0002b070  ti_sysbios_family_arm_m3_Hwi_E_alreadyDefined__C                
0002b074  ti_sysbios_family_arm_m3_Hwi_E_badIntNum__C                     
0002b078  ti_sysbios_family_arm_m3_Hwi_NUM_INTERRUPTS__C                  
0002b07c  ti_sysbios_family_arm_m3_Hwi_Object__count__C                   
0002b080  ti_sysbios_family_arm_m3_Hwi_ccr__C                             
0002b084  ti_sysbios_family_arm_m3_Hwi_excHandlerFunc__C                  
0002b088  ti_sysbios_family_arm_m3_Hwi_nullIsrFunc__C                     
0002b08c  ti_sysbios_family_arm_m3_Hwi_priGroup__C                        
0002b090  ti_sysbios_family_arm_m3_TaskSupport_stackAlignment__C          
0002b094  ti_sysbios_gates_GateMutex_Instance_State_sem__O                
0002b098  ti_sysbios_heaps_HeapMem_E_memory__C                            
0002b09c  ti_sysbios_heaps_HeapMem_Module__gateObj__C                     
0002b0a0  ti_sysbios_heaps_HeapMem_Object__count__C                       
0002b0a4  ti_sysbios_heaps_HeapMem_primaryHeapBaseAddr__C                 
0002b0a8  ti_sysbios_heaps_HeapMem_primaryHeapEndAddr__C                  
0002b0ac  ti_sysbios_heaps_HeapMem_reqAlign__C                            
0002b0b0  ti_sysbios_knl_Clock_Module_State_clockQ__O                     
0002b0b4  ti_sysbios_knl_Clock_tickPeriod__C                              
0002b0b8  ti_sysbios_knl_Mailbox_Instance_State_freeQue__O                
0002b0bc  ti_sysbios_knl_Mailbox_Object__count__C                         
0002b0c0  ti_sysbios_knl_Mailbox_maxTypeAlign__C                          
0002b0c4  ti_sysbios_knl_Semaphore_Instance_State_pendQ__O                
0002b0c8  ti_sysbios_knl_Swi_Object__count__C                             
0002b0cc  ti_sysbios_knl_Task_E_deleteNotAllowed__C                       
0002b0d0  ti_sysbios_knl_Task_Module_State_inactiveQ__O                   
0002b0d4  ti_sysbios_knl_Task_Module_State_terminatedQ__O                 
0002b0d8  ti_sysbios_knl_Task_Object__count__C                            
0002b0dc  ti_sysbios_knl_Task_Object__heap__C                             
0002b0e0  ti_sysbios_knl_Task_allBlockedFunc__C                           
0002b0e4  ti_sysbios_knl_Task_defaultStackHeap__C                         
0002b0e8  ti_sysbios_knl_Task_defaultStackSize__C                         
0002b0ec  ti_sysbios_knl_Task_numConstructedTasks__C                      
0002b0f0  xdc_runtime_Error_E_memory__C                                   
0002b0f4  xdc_runtime_Error_policyFxn__C                                  
0002b0f8  xdc_runtime_IGateProvider_Interface__BASE__C                    
0002b0fc  xdc_runtime_IHeap_Interface__BASE__C                            
0002b100  xdc_runtime_IModule_Interface__BASE__C                          
0002b104  xdc_runtime_Memory_defaultHeapInstance__C                       
0002b108  xdc_runtime_Startup_execImpl__C                                 
0002b10c  xdc_runtime_Startup_maxPasses__C                                
0002b110  xdc_runtime_Startup_sfxnRts__C                                  
0002b114  xdc_runtime_Startup_sfxnTab__C                                  
0002b118  xdc_runtime_SysCallback_abortFxn__C                             
0002b11c  xdc_runtime_SysCallback_exitFxn__C                              
0002b120  xdc_runtime_SysCallback_putchFxn__C                             
0002b124  xdc_runtime_SysCallback_readyFxn__C                             
0002b128  xdc_runtime_System_Module__gateObj__C                           
0002b12c  xdc_runtime_System_abortFxn__C                                  
0002b130  xdc_runtime_System_exitFxn__C                                   
0002b134  xdc_runtime_System_extendFxn__C                                 
0002b138  xdc_runtime_System_maxAtexitHandlers__C                         
0002b13c  xdc_runtime_Memory_Module__id__C                                
0002b140  __TI_static_base__                                              
0002b7b8  __TI_Handler_Table_Base                                         
0002b7c4  __TI_Handler_Table_Limit                                        
0002b7d0  __TI_CINIT_Base                                                 
0002b7e0  __TI_CINIT_Limit                                                
20000000  __start___llvm_prf_cnts                                         
20000000  __stop___llvm_prf_cnts                                          
20000000  ti_sysbios_family_arm_m3_Hwi_ramVectors                         
20000360  __primary_heap_start__                                          
20020360  __primary_heap_end__                                            
20020400  Global                                                          
20031460  ti_ndk_config_Global_pit                                        
20031508  ti_ndk_config_Global_pitBuffer                                  
20035d08  ti_ndk_config_Global_pBufMem                                    
20039908  ti_ndk_config_Global_pHdrMem                                    
20039c78  ti_sysbios_knl_Task_Instance_State_0_stack__A                   
2003a478  ti_sysbios_knl_Task_Instance_State_1_stack__A                   
2003ac78  ti_sysbios_knl_Task_Instance_State_2_stack__A                   
2003b478  ti_sysbios_knl_Task_Instance_State_3_stack__A                   
2003bc78  ti_sysbios_knl_Task_Instance_State_4_stack__A                   
2003c478  ti_sysbios_knl_Task_Instance_State_5_stack__A                   
2003cc78  ti_sysbios_knl_Task_Instance_State_6_stack__A                   
2003d478  ti_sysbios_knl_Task_Instance_State_7_stack__A                   
2003d678  __CIOBUF_                                                       
2003dc00  ti_sysbios_family_arm_m3_Hwi_dispatchTable                      
2003e060  uartMSP432E4Objects                                             
2003e128  NDK_tcps                                                        
2003e298  __TI_tmpnams                                                    
2003e338  adcbufMSP432E4Objects                                           
2003e67c  NDK_ips                                                         
2003e6e4  timerMSP432E4Objects                                            
2003e74c  nimu_mcb                                                        
2003e7b0  NDK_ICMPIn                                                      
2003e7fc  NDK_ICMPOut                                                     
2003e848  spiMSP432E4DMAObjects                                           
2003e8f4  ti_ndk_socket_fdtable                                           
2003e91c  vlan_mcb                                                        
2003e944  NDK_udps                                                        
2003ea50  stkEvent                                                        
2003ea9c  NDK_raweths                                                     
2003eaac  NDK_raws                                                        
2003eabc  PBMQ_free                                                       
2003eac8  tpseudo                                                         
2003ead4  upseudo                                                         
2003eaf0  parmbuf                                                         
2003eaf8  ti_sysbios_knl_Task_Instance_State_0_hookEnv__A                 
2003eb00  ti_sysbios_knl_Task_Instance_State_1_hookEnv__A                 
2003eb08  ti_sysbios_knl_Task_Instance_State_2_hookEnv__A                 
2003eb10  ti_sysbios_knl_Task_Instance_State_3_hookEnv__A                 
2003eb18  ti_sysbios_knl_Task_Instance_State_4_hookEnv__A                 
2003eb20  ti_sysbios_knl_Task_Instance_State_5_hookEnv__A                 
2003eb28  ti_sysbios_knl_Task_Instance_State_6_hookEnv__A                 
2003eb30  ti_sysbios_knl_Task_Instance_State_7_hookEnv__A                 
2003eb38  udmaMSP432E4Object                                              
2003eb54  _IGMPInDiscard                                                  
2003eb58  _IGMPInQuery                                                    
2003eb5c  _IGMPInQueryGroup                                               
2003eb60  _IGMPInResponse                                                 
2003eb64  _IGMPOutResponse                                                
2003eb68  raweth_pcb                                                      
2003eb6c  ti_sysbios_knl_Task_Object__table__V                            
2003edcc  PowerMSP432E4_module                                            
2003ef38  ti_sysbios_knl_Swi_Object__table__V                             
2003f058  _ftable                                                         
2003f148  _ipcfg                                                          
2003f288  ti_sysbios_knl_Swi_Module_State_0_readyQ__A                     
2003f308  ti_sysbios_knl_Task_Module_State_0_readyQ__A                    
2003f388  _device                                                         
2003f400  ti_sysbios_knl_Semaphore_Object__table__V                       
2003f478  SlNetIfConfigNDK                                                
2003f4d0  ti_sysbios_gates_GateMutex_Object__table__V                     
2003f524  _stream                                                         
2003f5c4  ti_sysbios_knl_Task_Module__state__V                            
2003f688  ti_sysbios_family_arm_lm4_Timer_Module_State_0_device__A        
2003f6c8  ti_sysbios_family_arm_lm4_Timer_Object__table__V                
2003f73c  ti_sysbios_family_arm_m3_Hwi_Module__state__V                   
2003f7cc  ti_sysbios_knl_Clock_Module__state__V                           
2003f7f8  _oscfg                                                          
2003f844  ti_sysbios_BIOS_Module__state__V                                
2003f868  gpioCallbackFunctions                                           
2003f888  gpioPinConfigs                                                  
2003f8a8  pstrMsgName                                                     
2003f8c8  ti_sysbios_family_arm_lm4_Timer_Module_State_0_handles__A       
2003f8e8  ti_sysbios_gates_GateSwi_Object__table__V                       
2003f908  xdc_runtime_Error_IgnoreBlock                                   
2003f944  ti_ndk_config_Global_Id2Size                                    
2003f960  ti_sysbios_knl_Swi_Module__state__V                             
2003f994  ti_sysbios_family_arm_m3_Hwi_Object__table__V                   
2003f9ac  ti_sysbios_heaps_HeapMem_Object__table__V                       
2003fa14  ti_sysbios_family_arm_lm4_Seconds_Module__state__V              
2003fa28  adcBuf0MSP432E4Channels                                         
2003fa68  __TI_ft_end                                                     
2003fa6c  __aeabi_stdin                                                   
2003fa70  __aeabi_stdout                                                  
2003fa74  __aeabi_stderr                                                  
2003fa80  _IGMPForceVersion1                                              
2003fa88  __TI_cleanup_ptr                                                
2003fa8c  __TI_dtors_ptr                                                  
2003fa90  __TI_enable_exit_profile_output                                 
2003fa94  NDK_createSockCtx                                               
2003fa98  NDK_closeSockCtx                                                
2003fa9c  NDK_netStartError                                               
2003faa0  ti_sysbios_family_arm_lm4_Timer_Module__state__V                
2003fab8  _lock                                                           
2003fabc  _unlock                                                         
2003fac0  NIMUDeviceTable                                                 
2003faf0  NDK_ICMPInErrors                                                
2003faf4  NDK_ICMPOutErrors                                               
2003faf8  _IPExecuting                                                    
2003fb18  tcp_iss                                                         
2003fb1c  ptTimeFirst                                                     
2003fb28  ti_ndk_socket_max_fd                                            
2003fb30  ti_sysbios_family_arm_m3_Hwi_Module__root__V                    
2003fb38  ti_sysbios_gates_GateHwi_Module__root__V                        
2003fb40  ti_sysbios_gates_GateMutex_Module__root__V                      
2003fb48  ti_sysbios_gates_GateSwi_Module__root__V                        
2003fb50  ti_sysbios_heaps_HeapMem_Module__root__V                        
2003fb58  ti_sysbios_knl_Clock_Module__root__V                            
2003fb60  ti_sysbios_knl_Queue_Module__root__V                            
2003fb68  ti_sysbios_knl_Semaphore_Module__root__V                        
2003fb70  ti_sysbios_knl_Task_Module__root__V                             
2003fb78  xdc_runtime_Startup_Module__state__V                            
2003fb80  xdc_runtime_System_Module_State_0_atexitHandlers__A             
2003fb88  xdc_runtime_System_Module__state__V                             
2003fbb4  main_func_sp                                                    
2003fbc4  _IPReasmPtr                                                     
2003fbd8  ti_sysbios_family_arm_m3_Hwi_Module_State_0_excContext__A       
2003fbdc  ti_sysbios_family_arm_m3_Hwi_Module_State_0_excStack__A         
2003fbe0  ti_sysbios_gates_GateHwi_Object__table__V                       
2003fbe4  ti_sysbios_knl_Task_Module_State_0_idleTask__A                  
2003fbe8  ti_sysbios_rts_ti_ReentSupport_Module__state__V                 
2003fbf0  xdc_runtime_Memory_Module__state__V                             
2003fbf8  ti_sysbios_family_arm_m3_Hwi_Module_State_0_excActive__A        
2003fc00  __stack                                                         
20040000  __STACK_END                                                     
e000e000  ti_sysbios_family_arm_m3_Hwi_nvic                               
ffffffff  __TI_pprof_out_hndl                                             
ffffffff  __TI_prof_data_size                                             
ffffffff  __TI_prof_data_start                                            
ffffffff  __binit__                                                       
ffffffff  __c_args__                                                      
ffffffff  binit                                                           
UNDEFED   SHT$$INIT_ARRAY$$Base                                           
UNDEFED   SHT$$INIT_ARRAY$$Limit                                          

[1416 symbols]
